

Microchip MPLAB XC8 Assembler V2.31 build 20201012212115 
                                                                                               Mon Feb 22 20:30:08 2021

Microchip MPLAB XC8 C Compiler v2.31 (Free license) build 20201012212115 Og1 
     1                           	processor	16F887
     2                           	pagewidth 120
     3                           	opt	flic
     4                           	psect	nvBANK0,global,class=BANK0,space=1,delta=1,noexec
     5                           	psect	strings,global,class=STRING,delta=2,noexec
     6                           	psect	cinit,global,class=CODE,merge=1,delta=2
     7                           	psect	bssCOMMON,global,class=COMMON,space=1,delta=1,noexec
     8                           	psect	cstackCOMMON,global,class=COMMON,space=1,delta=1,noexec
     9                           	psect	cstackBANK0,global,class=BANK0,space=1,delta=1,noexec
    10                           	psect	maintext,global,class=CODE,split=1,delta=2
    11                           	psect	text1,local,class=CODE,merge=1,delta=2
    12                           	psect	text2,local,class=CODE,merge=1,delta=2
    13                           	psect	text3,local,class=CODE,merge=1,delta=2,group=1
    14                           	psect	text4,local,class=CODE,merge=1,delta=2,group=1
    15                           	psect	text5,local,class=CODE,merge=1,delta=2,group=1
    16                           	psect	text6,local,class=CODE,merge=1,delta=2,group=1
    17                           	psect	text7,local,class=CODE,merge=1,delta=2,group=1
    18                           	psect	text8,local,class=CODE,merge=1,delta=2,group=1
    19                           	psect	text9,local,class=CODE,merge=1,delta=2
    20                           	psect	text10,local,class=CODE,merge=1,delta=2
    21                           	psect	text11,local,class=CODE,merge=1,delta=2
    22                           	psect	text12,local,class=CODE,merge=1,delta=2
    23                           	psect	text13,local,class=CODE,merge=1,delta=2
    24                           	psect	text14,local,class=CODE,merge=1,delta=2
    25                           	psect	text15,local,class=CODE,merge=1,delta=2
    26                           	psect	text16,local,class=CODE,merge=1,delta=2
    27                           	psect	intentry,global,class=CODE,delta=2
    28                           	psect	text17,local,class=CODE,merge=1,delta=2
    29                           	psect	config,global,abs,ovrld,class=CONFIG,space=4,delta=2,noexec
    30                           	dabs	1,0x7E,2
    31  0000                     
    32                           ; Version 2.20
    33                           ; Generated 12/02/2020 GMT
    34                           ; 
    35                           ; Copyright © 2020, Microchip Technology Inc. and its subsidiaries ("Microchip")
    36                           ; All rights reserved.
    37                           ; 
    38                           ; This software is developed by Microchip Technology Inc. and its subsidiaries ("Microch
      +                          ip").
    39                           ; 
    40                           ; Redistribution and use in source and binary forms, with or without modification, are
    41                           ; permitted provided that the following conditions are met:
    42                           ; 
    43                           ;     1. Redistributions of source code must retain the above copyright notice, this lis
      +                          t of
    44                           ;        conditions and the following disclaimer.
    45                           ; 
    46                           ;     2. Redistributions in binary form must reproduce the above copyright notice, this 
      +                          list
    47                           ;        of conditions and the following disclaimer in the documentation and/or other
    48                           ;        materials provided with the distribution.
    49                           ; 
    50                           ;     3. Microchip's name may not be used to endorse or promote products derived from th
      +                          is
    51                           ;        software without specific prior written permission.
    52                           ; 
    53                           ; THIS SOFTWARE IS PROVIDED BY MICROCHIP "AS IS" AND ANY EXPRESS OR IMPLIED WARRANTIES,
    54                           ; INCLUDING, BUT NOT LIMITED TO, THE IMPLIED WARRANTIES OF MERCHANTABILITY AND FITNESS F
      +                          OR
    55                           ; PURPOSE ARE DISCLAIMED.  IN NO EVENT SHALL MICROCHIP BE LIABLE FOR ANY DIRECT, INDIREC
      +                          T,
    56                           ; INCIDENTAL, SPECIAL, EXEMPLARY, OR CONSEQUENTIAL DAMAGES (INCLUDING BUT NOT LIMITED TO
    57                           ; PROCUREMENT OF SUBSTITUTE GOODS OR SERVICES; LOSS OF USE, DATA OR PROFITS; OR BUSINESS
    58                           ; INTERRUPTION) HOWSOEVER CAUSED AND ON ANY THEORY OF LIABILITY, WHETHER IN CONTRACT, ST
      +                          RICT
    59                           ; LIABILITY, OR TORT (INCLUDING NEGLIGENCE OR OTHERWISE) ARISING IN ANY WAY OUT OF THE U
      +                          SE OF
    60                           ; THIS SOFTWARE, EVEN IF ADVISED OF THE POSSIBILITY OF SUCH DAMAGE.
    61                           ; 
    62                           ; 
    63                           ; Code-generator required, PIC16F887 Definitions
    64                           ; 
    65                           ; SFR Addresses
    66  0000                     	;# 
    67  0001                     	;# 
    68  0002                     	;# 
    69  0003                     	;# 
    70  0004                     	;# 
    71  0005                     	;# 
    72  0006                     	;# 
    73  0007                     	;# 
    74  0008                     	;# 
    75  0009                     	;# 
    76  000A                     	;# 
    77  000B                     	;# 
    78  000C                     	;# 
    79  000D                     	;# 
    80  000E                     	;# 
    81  000E                     	;# 
    82  000F                     	;# 
    83  0010                     	;# 
    84  0011                     	;# 
    85  0012                     	;# 
    86  0013                     	;# 
    87  0014                     	;# 
    88  0015                     	;# 
    89  0015                     	;# 
    90  0016                     	;# 
    91  0017                     	;# 
    92  0018                     	;# 
    93  0019                     	;# 
    94  001A                     	;# 
    95  001B                     	;# 
    96  001B                     	;# 
    97  001C                     	;# 
    98  001D                     	;# 
    99  001E                     	;# 
   100  001F                     	;# 
   101  0081                     	;# 
   102  0085                     	;# 
   103  0086                     	;# 
   104  0087                     	;# 
   105  0088                     	;# 
   106  0089                     	;# 
   107  008C                     	;# 
   108  008D                     	;# 
   109  008E                     	;# 
   110  008F                     	;# 
   111  0090                     	;# 
   112  0091                     	;# 
   113  0092                     	;# 
   114  0093                     	;# 
   115  0093                     	;# 
   116  0093                     	;# 
   117  0094                     	;# 
   118  0095                     	;# 
   119  0096                     	;# 
   120  0097                     	;# 
   121  0098                     	;# 
   122  0099                     	;# 
   123  009A                     	;# 
   124  009B                     	;# 
   125  009C                     	;# 
   126  009D                     	;# 
   127  009E                     	;# 
   128  009F                     	;# 
   129  0105                     	;# 
   130  0107                     	;# 
   131  0108                     	;# 
   132  0109                     	;# 
   133  010C                     	;# 
   134  010C                     	;# 
   135  010D                     	;# 
   136  010E                     	;# 
   137  010F                     	;# 
   138  0185                     	;# 
   139  0187                     	;# 
   140  0188                     	;# 
   141  0189                     	;# 
   142  018C                     	;# 
   143  018D                     	;# 
   144  0000                     	;# 
   145  0001                     	;# 
   146  0002                     	;# 
   147  0003                     	;# 
   148  0004                     	;# 
   149  0005                     	;# 
   150  0006                     	;# 
   151  0007                     	;# 
   152  0008                     	;# 
   153  0009                     	;# 
   154  000A                     	;# 
   155  000B                     	;# 
   156  000C                     	;# 
   157  000D                     	;# 
   158  000E                     	;# 
   159  000E                     	;# 
   160  000F                     	;# 
   161  0010                     	;# 
   162  0011                     	;# 
   163  0012                     	;# 
   164  0013                     	;# 
   165  0014                     	;# 
   166  0015                     	;# 
   167  0015                     	;# 
   168  0016                     	;# 
   169  0017                     	;# 
   170  0018                     	;# 
   171  0019                     	;# 
   172  001A                     	;# 
   173  001B                     	;# 
   174  001B                     	;# 
   175  001C                     	;# 
   176  001D                     	;# 
   177  001E                     	;# 
   178  001F                     	;# 
   179  0081                     	;# 
   180  0085                     	;# 
   181  0086                     	;# 
   182  0087                     	;# 
   183  0088                     	;# 
   184  0089                     	;# 
   185  008C                     	;# 
   186  008D                     	;# 
   187  008E                     	;# 
   188  008F                     	;# 
   189  0090                     	;# 
   190  0091                     	;# 
   191  0092                     	;# 
   192  0093                     	;# 
   193  0093                     	;# 
   194  0093                     	;# 
   195  0094                     	;# 
   196  0095                     	;# 
   197  0096                     	;# 
   198  0097                     	;# 
   199  0098                     	;# 
   200  0099                     	;# 
   201  009A                     	;# 
   202  009B                     	;# 
   203  009C                     	;# 
   204  009D                     	;# 
   205  009E                     	;# 
   206  009F                     	;# 
   207  0105                     	;# 
   208  0107                     	;# 
   209  0108                     	;# 
   210  0109                     	;# 
   211  010C                     	;# 
   212  010C                     	;# 
   213  010D                     	;# 
   214  010E                     	;# 
   215  010F                     	;# 
   216  0185                     	;# 
   217  0187                     	;# 
   218  0188                     	;# 
   219  0189                     	;# 
   220  018C                     	;# 
   221  018D                     	;# 
   222  0000                     	;# 
   223  0001                     	;# 
   224  0002                     	;# 
   225  0003                     	;# 
   226  0004                     	;# 
   227  0005                     	;# 
   228  0006                     	;# 
   229  0007                     	;# 
   230  0008                     	;# 
   231  0009                     	;# 
   232  000A                     	;# 
   233  000B                     	;# 
   234  000C                     	;# 
   235  000D                     	;# 
   236  000E                     	;# 
   237  000E                     	;# 
   238  000F                     	;# 
   239  0010                     	;# 
   240  0011                     	;# 
   241  0012                     	;# 
   242  0013                     	;# 
   243  0014                     	;# 
   244  0015                     	;# 
   245  0015                     	;# 
   246  0016                     	;# 
   247  0017                     	;# 
   248  0018                     	;# 
   249  0019                     	;# 
   250  001A                     	;# 
   251  001B                     	;# 
   252  001B                     	;# 
   253  001C                     	;# 
   254  001D                     	;# 
   255  001E                     	;# 
   256  001F                     	;# 
   257  0081                     	;# 
   258  0085                     	;# 
   259  0086                     	;# 
   260  0087                     	;# 
   261  0088                     	;# 
   262  0089                     	;# 
   263  008C                     	;# 
   264  008D                     	;# 
   265  008E                     	;# 
   266  008F                     	;# 
   267  0090                     	;# 
   268  0091                     	;# 
   269  0092                     	;# 
   270  0093                     	;# 
   271  0093                     	;# 
   272  0093                     	;# 
   273  0094                     	;# 
   274  0095                     	;# 
   275  0096                     	;# 
   276  0097                     	;# 
   277  0098                     	;# 
   278  0099                     	;# 
   279  009A                     	;# 
   280  009B                     	;# 
   281  009C                     	;# 
   282  009D                     	;# 
   283  009E                     	;# 
   284  009F                     	;# 
   285  0105                     	;# 
   286  0107                     	;# 
   287  0108                     	;# 
   288  0109                     	;# 
   289  010C                     	;# 
   290  010C                     	;# 
   291  010D                     	;# 
   292  010E                     	;# 
   293  010F                     	;# 
   294  0185                     	;# 
   295  0187                     	;# 
   296  0188                     	;# 
   297  0189                     	;# 
   298  018C                     	;# 
   299  018D                     	;# 
   300  0000                     	;# 
   301  0001                     	;# 
   302  0002                     	;# 
   303  0003                     	;# 
   304  0004                     	;# 
   305  0005                     	;# 
   306  0006                     	;# 
   307  0007                     	;# 
   308  0008                     	;# 
   309  0009                     	;# 
   310  000A                     	;# 
   311  000B                     	;# 
   312  000C                     	;# 
   313  000D                     	;# 
   314  000E                     	;# 
   315  000E                     	;# 
   316  000F                     	;# 
   317  0010                     	;# 
   318  0011                     	;# 
   319  0012                     	;# 
   320  0013                     	;# 
   321  0014                     	;# 
   322  0015                     	;# 
   323  0015                     	;# 
   324  0016                     	;# 
   325  0017                     	;# 
   326  0018                     	;# 
   327  0019                     	;# 
   328  001A                     	;# 
   329  001B                     	;# 
   330  001B                     	;# 
   331  001C                     	;# 
   332  001D                     	;# 
   333  001E                     	;# 
   334  001F                     	;# 
   335  0081                     	;# 
   336  0085                     	;# 
   337  0086                     	;# 
   338  0087                     	;# 
   339  0088                     	;# 
   340  0089                     	;# 
   341  008C                     	;# 
   342  008D                     	;# 
   343  008E                     	;# 
   344  008F                     	;# 
   345  0090                     	;# 
   346  0091                     	;# 
   347  0092                     	;# 
   348  0093                     	;# 
   349  0093                     	;# 
   350  0093                     	;# 
   351  0094                     	;# 
   352  0095                     	;# 
   353  0096                     	;# 
   354  0097                     	;# 
   355  0098                     	;# 
   356  0099                     	;# 
   357  009A                     	;# 
   358  009B                     	;# 
   359  009C                     	;# 
   360  009D                     	;# 
   361  009E                     	;# 
   362  009F                     	;# 
   363  0105                     	;# 
   364  0107                     	;# 
   365  0108                     	;# 
   366  0109                     	;# 
   367  010C                     	;# 
   368  010C                     	;# 
   369  010D                     	;# 
   370  010E                     	;# 
   371  010F                     	;# 
   372  0185                     	;# 
   373  0187                     	;# 
   374  0188                     	;# 
   375  0189                     	;# 
   376  018C                     	;# 
   377  018D                     	;# 
   378                           
   379                           	psect	nvBANK0
   380  005B                     __pnvBANK0:
   381  005B                     _prueba3:
   382  005B                     	ds	1
   383  005C                     _prueba2:
   384  005C                     	ds	1
   385  005D                     _prueba1:
   386  005D                     	ds	1
   387  001A                     _RCREG	set	26
   388  0018                     _RCSTAbits	set	24
   389  0008                     _PORTD	set	8
   390  000C                     _PIR1bits	set	12
   391  000B                     _INTCONbits	set	11
   392  0031                     _RB1	set	49
   393  0030                     _RB0	set	48
   394  009A                     _SPBRGH	set	154
   395  0099                     _SPBRG	set	153
   396  008C                     _PIE1bits	set	140
   397  0098                     _TXSTAbits	set	152
   398  0086                     _TRISB	set	134
   399  0085                     _TRISA	set	133
   400  0088                     _TRISD	set	136
   401  0087                     _TRISCbits	set	135
   402  0087                     _TRISC	set	135
   403  0187                     _BAUDCTLbits	set	391
   404  0189                     _ANSELH	set	393
   405  0188                     _ANSEL	set	392
   406                           
   407                           	psect	strings
   408  077C                     __pstrings:
   409  077C                     stringtab:
   410  077C                     __stringtab:
   411  077C                     stringcode:	
   412                           ;	String table - string pointers are 1 byte each
   413                           
   414  077C                     stringdir:
   415  077C  3007               	movlw	high stringdir
   416  077D  008A               	movwf	10
   417  077E  0804               	movf	4,w
   418  077F  0A84               	incf	4,f
   419  0780  0782               	addwf	2,f
   420  0781                     __stringbase:
   421  0781  3400               	retlw	0
   422  0782                     __end_of__stringtab:
   423  0782                     STR_1:
   424  0782  3420               	retlw	32	;' '
   425  0783  3453               	retlw	83	;'S'
   426  0784  3431               	retlw	49	;'1'
   427  0785  343A               	retlw	58	;':'
   428  0786  3420               	retlw	32	;' '
   429  0787  3420               	retlw	32	;' '
   430  0788  3453               	retlw	83	;'S'
   431  0789  3432               	retlw	50	;'2'
   432  078A  343A               	retlw	58	;':'
   433  078B  3420               	retlw	32	;' '
   434  078C  3420               	retlw	32	;' '
   435  078D  3453               	retlw	83	;'S'
   436  078E  3433               	retlw	51	;'3'
   437  078F  343A               	retlw	58	;':'
   438  0790  3400               	retlw	0
   439  0791                     STR_2:
   440  0791  342E               	retlw	46	;'.'
   441  0792  3400               	retlw	0
   442                           
   443                           	psect	cinit
   444  000F                     start_initialization:	
   445                           ; #config settings
   446                           
   447  000F                     __initialization:
   448                           
   449                           ; Clear objects allocated to COMMON
   450  000F  01F9               	clrf	__pbssCOMMON& (0+127)
   451  0010  01FA               	clrf	(__pbssCOMMON+1)& (0+127)
   452  0011                     end_of_initialization:	
   453                           ;End of C runtime variable initialization code
   454                           
   455  0011                     __end_of__initialization:
   456  0011  0183               	clrf	3
   457  0012  120A  118A  2E03   	ljmp	_main	;jump to C main() function
   458                           
   459                           	psect	bssCOMMON
   460  0079                     __pbssCOMMON:
   461  0079                     _comando:
   462  0079                     	ds	1
   463  007A                     _a:
   464  007A                     	ds	1
   465                           
   466                           	psect	cstackCOMMON
   467  0070                     __pcstackCOMMON:
   468  0070                     ?_setup:
   469  0070                     ?_Lcd_Init:	
   470                           ; 1 bytes @ 0x0
   471                           
   472  0070                     ?_Lcd_Clear:	
   473                           ; 1 bytes @ 0x0
   474                           
   475  0070                     ?_Lcd_Write_String:	
   476                           ; 1 bytes @ 0x0
   477                           
   478  0070                     ?_Receive:	
   479                           ; 1 bytes @ 0x0
   480                           
   481  0070                     ??_Receive:	
   482                           ; 1 bytes @ 0x0
   483                           
   484  0070                     ?_Lcd_Write_Char:	
   485                           ; 1 bytes @ 0x0
   486                           
   487  0070                     ?_main:	
   488                           ; 1 bytes @ 0x0
   489                           
   490  0070                     ?_oli:	
   491                           ; 1 bytes @ 0x0
   492                           
   493  0070                     ??_oli:	
   494                           ; 1 bytes @ 0x0
   495                           
   496  0070                     ?_Lcd_Port:	
   497                           ; 1 bytes @ 0x0
   498                           
   499  0070                     ?_Lcd_Cmd:	
   500                           ; 1 bytes @ 0x0
   501                           
   502                           
   503                           ; 1 bytes @ 0x0
   504  0070                     	ds	3
   505  0073                     ??_setup:
   506  0073                     ??_Lcd_Port:	
   507                           ; 1 bytes @ 0x3
   508                           
   509  0073                     ?__Umul8_16:	
   510                           ; 1 bytes @ 0x3
   511                           
   512  0073                     ?___wmul:	
   513                           ; 2 bytes @ 0x3
   514                           
   515  0073                     ?___lwdiv:	
   516                           ; 2 bytes @ 0x3
   517                           
   518  0073                     ?___xxtofl:	
   519                           ; 2 bytes @ 0x3
   520                           
   521  0073                     Lcd_Port@a:	
   522                           ; 4 bytes @ 0x3
   523                           
   524  0073                     __Umul8_16@multiplicand:	
   525                           ; 1 bytes @ 0x3
   526                           
   527  0073                     ___wmul@multiplier:	
   528                           ; 1 bytes @ 0x3
   529                           
   530  0073                     ___lwdiv@divisor:	
   531                           ; 2 bytes @ 0x3
   532                           
   533  0073                     ___xxtofl@val:	
   534                           ; 2 bytes @ 0x3
   535                           
   536                           
   537                           ; 4 bytes @ 0x3
   538  0073                     	ds	1
   539  0074                     ??_Lcd_Write_Char:
   540  0074                     ??_Lcd_Cmd:	
   541                           ; 1 bytes @ 0x4
   542                           
   543                           
   544                           ; 1 bytes @ 0x4
   545  0074                     	ds	1
   546  0075                     ??__Umul8_16:
   547  0075                     Lcd_Write_Char@a:	
   548                           ; 1 bytes @ 0x5
   549                           
   550  0075                     ___wmul@multiplicand:	
   551                           ; 1 bytes @ 0x5
   552                           
   553  0075                     ___lwdiv@dividend:	
   554                           ; 2 bytes @ 0x5
   555                           
   556                           
   557                           ; 2 bytes @ 0x5
   558  0075                     	ds	1
   559  0076                     ??_Lcd_Write_String:
   560  0076                     Lcd_Cmd@a:	
   561                           ; 1 bytes @ 0x6
   562                           
   563  0076                     Lcd_Write_String@i:	
   564                           ; 1 bytes @ 0x6
   565                           
   566                           
   567                           ; 2 bytes @ 0x6
   568  0076                     	ds	1
   569  0077                     ??_Lcd_Init:
   570  0077                     ??_Lcd_Clear:	
   571                           ; 1 bytes @ 0x7
   572                           
   573  0077                     ?_Lcd_Set_Cursor:	
   574                           ; 1 bytes @ 0x7
   575                           
   576  0077                     ??___wmul:	
   577                           ; 1 bytes @ 0x7
   578                           
   579  0077                     ??___lwdiv:	
   580                           ; 1 bytes @ 0x7
   581                           
   582  0077                     Lcd_Set_Cursor@b:	
   583                           ; 1 bytes @ 0x7
   584                           
   585  0077                     ___fltol@sign1:	
   586                           ; 1 bytes @ 0x7
   587                           
   588  0077                     ___wmul@product:	
   589                           ; 1 bytes @ 0x7
   590                           
   591                           
   592                           ; 2 bytes @ 0x7
   593  0077                     	ds	1
   594  0078                     ??_Lcd_Set_Cursor:
   595  0078                     Lcd_Set_Cursor@a:	
   596                           ; 1 bytes @ 0x8
   597                           
   598  0078                     Lcd_Write_String@a:	
   599                           ; 1 bytes @ 0x8
   600                           
   601  0078                     ___fltol@exp1:	
   602                           ; 1 bytes @ 0x8
   603                           
   604                           
   605                           ; 1 bytes @ 0x8
   606  0078                     	ds	1
   607                           
   608                           	psect	cstackBANK0
   609  0020                     __pcstackBANK0:
   610  0020                     ??___xxtofl:
   611  0020                     ___lwdiv@counter:	
   612                           ; 1 bytes @ 0x0
   613                           
   614  0020                     __Umul8_16@product:	
   615                           ; 1 bytes @ 0x0
   616                           
   617                           
   618                           ; 2 bytes @ 0x0
   619  0020                     	ds	1
   620  0021                     ___lwdiv@quotient:
   621                           
   622                           ; 2 bytes @ 0x1
   623  0021                     	ds	1
   624  0022                     __Umul8_16@word_mpld:
   625                           
   626                           ; 2 bytes @ 0x2
   627  0022                     	ds	2
   628  0024                     __Umul8_16@multiplier:
   629  0024                     ___xxtofl@sign:	
   630                           ; 1 bytes @ 0x4
   631                           
   632                           
   633                           ; 1 bytes @ 0x4
   634  0024                     	ds	1
   635  0025                     ___xxtofl@exp:
   636                           
   637                           ; 1 bytes @ 0x5
   638  0025                     	ds	1
   639  0026                     ___xxtofl@arg:
   640                           
   641                           ; 4 bytes @ 0x6
   642  0026                     	ds	4
   643  002A                     ?___flmul:
   644  002A                     ___flmul@b:	
   645                           ; 4 bytes @ 0xA
   646                           
   647                           
   648                           ; 4 bytes @ 0xA
   649  002A                     	ds	4
   650  002E                     ___flmul@a:
   651                           
   652                           ; 4 bytes @ 0xE
   653  002E                     	ds	4
   654  0032                     ??___flmul:
   655                           
   656                           ; 1 bytes @ 0x12
   657  0032                     	ds	5
   658  0037                     ___flmul@sign:
   659                           
   660                           ; 1 bytes @ 0x17
   661  0037                     	ds	1
   662  0038                     ___flmul@grs:
   663                           
   664                           ; 4 bytes @ 0x18
   665  0038                     	ds	4
   666  003C                     ___flmul@aexp:
   667                           
   668                           ; 1 bytes @ 0x1C
   669  003C                     	ds	1
   670  003D                     ___flmul@bexp:
   671                           
   672                           ; 1 bytes @ 0x1D
   673  003D                     	ds	1
   674  003E                     ___flmul@prod:
   675                           
   676                           ; 4 bytes @ 0x1E
   677  003E                     	ds	4
   678  0042                     ___flmul@temp:
   679                           
   680                           ; 2 bytes @ 0x22
   681  0042                     	ds	2
   682  0044                     ?___fltol:
   683  0044                     ___fltol@f1:	
   684                           ; 4 bytes @ 0x24
   685                           
   686                           
   687                           ; 4 bytes @ 0x24
   688  0044                     	ds	4
   689  0048                     ??___fltol:
   690                           
   691                           ; 1 bytes @ 0x28
   692  0048                     	ds	5
   693  004D                     ?_WriteFloat:
   694  004D                     WriteFloat@columna:	
   695                           ; 1 bytes @ 0x2D
   696                           
   697                           
   698                           ; 1 bytes @ 0x2D
   699  004D                     	ds	1
   700  004E                     WriteFloat@valor:
   701                           
   702                           ; 1 bytes @ 0x2E
   703  004E                     	ds	1
   704  004F                     ??_WriteFloat:
   705                           
   706                           ; 1 bytes @ 0x2F
   707  004F                     	ds	4
   708  0053                     WriteFloat@cent:
   709                           
   710                           ; 1 bytes @ 0x33
   711  0053                     	ds	1
   712  0054                     WriteFloat@unidad:
   713                           
   714                           ; 1 bytes @ 0x34
   715  0054                     	ds	1
   716  0055                     WriteFloat@dec:
   717                           
   718                           ; 1 bytes @ 0x35
   719  0055                     	ds	1
   720  0056                     WriteFloat@fila:
   721                           
   722                           ; 1 bytes @ 0x36
   723  0056                     	ds	1
   724  0057                     WriteFloat@temp:
   725                           
   726                           ; 2 bytes @ 0x37
   727  0057                     	ds	2
   728  0059                     ??_main:
   729                           
   730                           ; 1 bytes @ 0x39
   731  0059                     	ds	2
   732                           
   733                           	psect	maintext
   734  0603                     __pmaintext:	
   735 ;;
   736 ;;Main: autosize = 0, tempsize = 2, incstack = 0, save=0
   737 ;;
   738 ;; *************** function _main *****************
   739 ;; Defined at:
   740 ;;		line 54 in file "Master.c"
   741 ;; Parameters:    Size  Location     Type
   742 ;;		None
   743 ;; Auto vars:     Size  Location     Type
   744 ;;		None
   745 ;; Return value:  Size  Location     Type
   746 ;;                  1    wreg      void 
   747 ;; Registers used:
   748 ;;		wreg, fsr0l, fsr0h, status,2, status,0, btemp+1, pclath, cstack
   749 ;; Tracked objects:
   750 ;;		On entry : B00/0
   751 ;;		On exit  : 0/0
   752 ;;		Unchanged: 0/0
   753 ;; Data sizes:     COMMON   BANK0   BANK1   BANK3   BANK2
   754 ;;      Params:         0       0       0       0       0
   755 ;;      Locals:         0       0       0       0       0
   756 ;;      Temps:          0       2       0       0       0
   757 ;;      Totals:         0       2       0       0       0
   758 ;;Total ram usage:        2 bytes
   759 ;; Hardware stack levels required when called:    6
   760 ;; This function calls:
   761 ;;		_Lcd_Clear
   762 ;;		_Lcd_Init
   763 ;;		_Lcd_Set_Cursor
   764 ;;		_Lcd_Write_String
   765 ;;		_WriteFloat
   766 ;;		_setup
   767 ;; This function is called by:
   768 ;;		Startup code after reset
   769 ;; This function uses a non-reentrant model
   770 ;;
   771                           
   772                           
   773                           ;psect for function _main
   774  0603                     _main:
   775  0603                     l1687:	
   776                           ;incstack = 0
   777                           ; Regs used in _main: [wreg-fsr0h+status,2+status,0+btemp+1+pclath+cstack]
   778                           
   779                           
   780                           ;Master.c: 55: 
   781  0603  120A  118A  270B  120A  118A  	fcall	_setup
   782                           
   783                           ;Master.c: 56: 
   784  0608  120A  118A  25AD  120A  118A  	fcall	_Lcd_Init
   785  060D                     l51:	
   786                           ;Master.c: 58: 
   787                           
   788                           
   789                           ;Master.c: 59: void __attribute__((picinterrupt(("")))) oli(void) {
   790  060D  120A  118A  27B7  120A  118A  	fcall	_Lcd_Clear
   791                           
   792                           ;Master.c: 60: 
   793  0612  01F7               	clrf	Lcd_Set_Cursor@b
   794  0613  0AF7               	incf	Lcd_Set_Cursor@b,f
   795  0614  3001               	movlw	1
   796  0615  120A  118A  2746  120A  118A  	fcall	_Lcd_Set_Cursor
   797  061A                     l1689:
   798                           
   799                           ;Master.c: 61:     if (PIR1bits.RCIF) {
   800  061A  3001               	movlw	(low ((STR_1-__stringbase)| (0+32768)))& (0+255)
   801  061B  120A  118A  26E6  120A  118A  	fcall	_Lcd_Write_String
   802  0620                     l1691:
   803                           
   804                           ;Master.c: 62:         comando = Receive();
   805  0620  1283               	bcf	3,5	;RP0=0, select bank0
   806  0621  1303               	bcf	3,6	;RP1=0, select bank0
   807  0622  01CD               	clrf	WriteFloat@columna
   808  0623  0ACD               	incf	WriteFloat@columna,f
   809  0624  085D               	movf	_prueba1,w
   810  0625  00D9               	movwf	??_main
   811  0626  0859               	movf	??_main,w
   812  0627  00CE               	movwf	WriteFloat@valor
   813  0628  3002               	movlw	2
   814  0629  120A  118A  2376  120A  118A  	fcall	_WriteFloat
   815  062E                     l1693:
   816                           
   817                           ;Master.c: 63:         _delay((unsigned long)((300)*(8000000/4000000.0)));
   818  062E  3006               	movlw	6
   819  062F  1283               	bcf	3,5	;RP0=0, select bank0
   820  0630  1303               	bcf	3,6	;RP1=0, select bank0
   821  0631  00D9               	movwf	??_main
   822  0632  0859               	movf	??_main,w
   823  0633  00CD               	movwf	WriteFloat@columna
   824  0634  085C               	movf	_prueba2,w
   825  0635  00DA               	movwf	??_main+1
   826  0636  085A               	movf	??_main+1,w
   827  0637  00CE               	movwf	WriteFloat@valor
   828  0638  3002               	movlw	2
   829  0639  120A  118A  2376  120A  118A  	fcall	_WriteFloat
   830  063E                     l1695:
   831                           
   832                           ;Master.c: 64:         PIR1bits.RCIF = 0;
   833  063E  300B               	movlw	11
   834  063F  1283               	bcf	3,5	;RP0=0, select bank0
   835  0640  1303               	bcf	3,6	;RP1=0, select bank0
   836  0641  00D9               	movwf	??_main
   837  0642  0859               	movf	??_main,w
   838  0643  00CD               	movwf	WriteFloat@columna
   839  0644  085B               	movf	_prueba3,w
   840  0645  00DA               	movwf	??_main+1
   841  0646  085A               	movf	??_main+1,w
   842  0647  00CE               	movwf	WriteFloat@valor
   843  0648  3002               	movlw	2
   844  0649  120A  118A  2376  120A  118A  	fcall	_WriteFloat
   845  064E  2E0D               	goto	l51
   846  064F  120A  118A  280C   	ljmp	start
   847  0652                     __end_of_main:
   848                           
   849                           	psect	text1
   850  070B                     __ptext1:	
   851 ;; *************** function _setup *****************
   852 ;; Defined at:
   853 ;;		line 73 in file "Master.c"
   854 ;; Parameters:    Size  Location     Type
   855 ;;		None
   856 ;; Auto vars:     Size  Location     Type
   857 ;;		None
   858 ;; Return value:  Size  Location     Type
   859 ;;                  1    wreg      void 
   860 ;; Registers used:
   861 ;;		wreg, status,2
   862 ;; Tracked objects:
   863 ;;		On entry : 0/0
   864 ;;		On exit  : 0/0
   865 ;;		Unchanged: 0/0
   866 ;; Data sizes:     COMMON   BANK0   BANK1   BANK3   BANK2
   867 ;;      Params:         0       0       0       0       0
   868 ;;      Locals:         0       0       0       0       0
   869 ;;      Temps:          1       0       0       0       0
   870 ;;      Totals:         1       0       0       0       0
   871 ;;Total ram usage:        1 bytes
   872 ;; Hardware stack levels used:    1
   873 ;; Hardware stack levels required when called:    2
   874 ;; This function calls:
   875 ;;		Nothing
   876 ;; This function is called by:
   877 ;;		_main
   878 ;; This function uses a non-reentrant model
   879 ;;
   880                           
   881                           
   882                           ;psect for function _setup
   883  070B                     _setup:
   884  070B                     l1461:	
   885                           ;incstack = 0
   886                           ; Regs used in _setup: [wreg+status,2]
   887                           
   888                           
   889                           ;Master.c: 76:     temp = temp - unidad * 100;
   890  070B  1683               	bsf	3,5	;RP0=1, select bank1
   891  070C  1303               	bcf	3,6	;RP1=0, select bank1
   892  070D  0187               	clrf	7	;volatile
   893  070E                     l1463:
   894                           
   895                           ;Master.c: 77:     dec = temp / 10;
   896  070E  1787               	bsf	7,7	;volatile
   897                           
   898                           ;Master.c: 78:     temp = temp - dec * 10;
   899  070F  0188               	clrf	8	;volatile
   900                           
   901                           ;Master.c: 79:     cent = temp;
   902  0710  1683               	bsf	3,5	;RP0=1, select bank3
   903  0711  1703               	bsf	3,6	;RP1=1, select bank3
   904  0712  0188               	clrf	8	;volatile
   905                           
   906                           ;Master.c: 80: 
   907  0713  0189               	clrf	9	;volatile
   908                           
   909                           ;Master.c: 81: 
   910  0714  1683               	bsf	3,5	;RP0=1, select bank1
   911  0715  1303               	bcf	3,6	;RP1=0, select bank1
   912  0716  0185               	clrf	5	;volatile
   913                           
   914                           ;Master.c: 82:     unidad = unidad + 48;
   915  0717  0186               	clrf	6	;volatile
   916  0718                     l1465:
   917                           
   918                           ;Master.c: 83:     dec = dec + 48;
   919  0718  178B               	bsf	11,7	;volatile
   920  0719                     l1467:
   921                           
   922                           ;Master.c: 84:     cent = cent + 48;
   923  0719  170B               	bsf	11,6	;volatile
   924  071A                     l1469:
   925                           
   926                           ;Master.c: 85: 
   927  071A  3019               	movlw	25
   928  071B  00F3               	movwf	??_setup
   929  071C  0873               	movf	??_setup,w
   930  071D  1283               	bcf	3,5	;RP0=0, select bank0
   931  071E  1303               	bcf	3,6	;RP1=0, select bank0
   932  071F  00DD               	movwf	_prueba1
   933  0720                     l1471:
   934                           
   935                           ;Master.c: 86: 
   936  0720  3081               	movlw	129
   937  0721  00F3               	movwf	??_setup
   938  0722  0873               	movf	??_setup,w
   939  0723  00DC               	movwf	_prueba2
   940  0724                     l1473:
   941                           
   942                           ;Master.c: 87:     Lcd_Set_Cursor(fila, columna);
   943  0724  30FF               	movlw	255
   944  0725  00F3               	movwf	??_setup
   945  0726  0873               	movf	??_setup,w
   946  0727  00DB               	movwf	_prueba3
   947  0728                     l57:
   948  0728  0008               	return
   949  0729                     __end_of_setup:
   950                           
   951                           	psect	text2
   952  0376                     __ptext2:	
   953 ;; *************** function _WriteFloat *****************
   954 ;; Defined at:
   955 ;;		line 104 in file "Master.c"
   956 ;; Parameters:    Size  Location     Type
   957 ;;  fila            1    wreg     unsigned char 
   958 ;;  columna         1   45[BANK0 ] unsigned char 
   959 ;;  valor           1   46[BANK0 ] unsigned char 
   960 ;; Auto vars:     Size  Location     Type
   961 ;;  fila            1   54[BANK0 ] unsigned char 
   962 ;;  temp            2   55[BANK0 ] unsigned int 
   963 ;;  dec             1   53[BANK0 ] unsigned char 
   964 ;;  unidad          1   52[BANK0 ] unsigned char 
   965 ;;  cent            1   51[BANK0 ] unsigned char 
   966 ;; Return value:  Size  Location     Type
   967 ;;                  1    wreg      void 
   968 ;; Registers used:
   969 ;;		wreg, fsr0l, fsr0h, status,2, status,0, btemp+1, pclath, cstack
   970 ;; Tracked objects:
   971 ;;		On entry : 0/0
   972 ;;		On exit  : 0/0
   973 ;;		Unchanged: 0/0
   974 ;; Data sizes:     COMMON   BANK0   BANK1   BANK3   BANK2
   975 ;;      Params:         0       2       0       0       0
   976 ;;      Locals:         0       6       0       0       0
   977 ;;      Temps:          0       4       0       0       0
   978 ;;      Totals:         0      12       0       0       0
   979 ;;Total ram usage:       12 bytes
   980 ;; Hardware stack levels used:    1
   981 ;; Hardware stack levels required when called:    5
   982 ;; This function calls:
   983 ;;		_Lcd_Set_Cursor
   984 ;;		_Lcd_Write_Char
   985 ;;		_Lcd_Write_String
   986 ;;		___flmul
   987 ;;		___fltol
   988 ;;		___lwdiv
   989 ;;		___wmul
   990 ;;		___xxtofl
   991 ;; This function is called by:
   992 ;;		_main
   993 ;; This function uses a non-reentrant model
   994 ;;
   995                           
   996                           
   997                           ;psect for function _WriteFloat
   998  0376                     _WriteFloat:
   999                           
  1000                           ;incstack = 0
  1001                           ; Regs used in _WriteFloat: [wreg-fsr0h+status,2+status,0+btemp+1+pclath+cstack]
  1002                           ;WriteFloat@fila stored from wreg
  1003  0376  1283               	bcf	3,5	;RP0=0, select bank0
  1004  0377  1303               	bcf	3,6	;RP1=0, select bank0
  1005  0378  00D6               	movwf	WriteFloat@fila
  1006  0379                     l1653:
  1007  0379  084E               	movf	WriteFloat@valor,w
  1008  037A  00CF               	movwf	??_WriteFloat
  1009  037B  01D0               	clrf	??_WriteFloat+1
  1010  037C  01D1               	clrf	??_WriteFloat+2
  1011  037D  01D2               	clrf	??_WriteFloat+3
  1012  037E  0852               	movf	??_WriteFloat+3,w
  1013  037F  00F6               	movwf	___xxtofl@val+3
  1014  0380  0851               	movf	??_WriteFloat+2,w
  1015  0381  00F5               	movwf	___xxtofl@val+2
  1016  0382  0850               	movf	??_WriteFloat+1,w
  1017  0383  00F4               	movwf	___xxtofl@val+1
  1018  0384  084F               	movf	??_WriteFloat,w
  1019  0385  00F3               	movwf	___xxtofl@val
  1020  0386  3001               	movlw	1
  1021  0387  120A  118A  2475  120A  118A  	fcall	___xxtofl
  1022  038C  0876               	movf	?___xxtofl+3,w
  1023  038D  1283               	bcf	3,5	;RP0=0, select bank0
  1024  038E  1303               	bcf	3,6	;RP1=0, select bank0
  1025  038F  00B1               	movwf	___flmul@a+3
  1026  0390  0875               	movf	?___xxtofl+2,w
  1027  0391  00B0               	movwf	___flmul@a+2
  1028  0392  0874               	movf	?___xxtofl+1,w
  1029  0393  00AF               	movwf	___flmul@a+1
  1030  0394  0873               	movf	?___xxtofl,w
  1031  0395  00AE               	movwf	___flmul@a
  1032  0396  303F               	movlw	63
  1033  0397  00AD               	movwf	___flmul@b+3
  1034  0398  30FB               	movlw	251
  1035  0399  00AC               	movwf	___flmul@b+2
  1036  039A  3002               	movlw	2
  1037  039B  00AB               	movwf	___flmul@b+1
  1038  039C  300C               	movlw	12
  1039  039D  00AA               	movwf	___flmul@b
  1040  039E  120A  118A  2015  120A  118A  	fcall	___flmul
  1041  03A3  1283               	bcf	3,5	;RP0=0, select bank0
  1042  03A4  1303               	bcf	3,6	;RP1=0, select bank0
  1043  03A5  082D               	movf	?___flmul+3,w
  1044  03A6  00C7               	movwf	___fltol@f1+3
  1045  03A7  082C               	movf	?___flmul+2,w
  1046  03A8  00C6               	movwf	___fltol@f1+2
  1047  03A9  082B               	movf	?___flmul+1,w
  1048  03AA  00C5               	movwf	___fltol@f1+1
  1049  03AB  082A               	movf	?___flmul,w
  1050  03AC  00C4               	movwf	___fltol@f1
  1051  03AD  120A  118A  2531  120A  118A  	fcall	___fltol
  1052  03B2  1283               	bcf	3,5	;RP0=0, select bank0
  1053  03B3  1303               	bcf	3,6	;RP1=0, select bank0
  1054  03B4  0845               	movf	?___fltol+1,w
  1055  03B5  00D8               	movwf	WriteFloat@temp+1
  1056  03B6  0844               	movf	?___fltol,w
  1057  03B7  00D7               	movwf	WriteFloat@temp
  1058  03B8                     l1655:
  1059  03B8  3064               	movlw	100
  1060  03B9  00F3               	movwf	___lwdiv@divisor
  1061  03BA  3000               	movlw	0
  1062  03BB  00F4               	movwf	___lwdiv@divisor+1
  1063  03BC  0858               	movf	WriteFloat@temp+1,w
  1064  03BD  00F6               	movwf	___lwdiv@dividend+1
  1065  03BE  0857               	movf	WriteFloat@temp,w
  1066  03BF  00F5               	movwf	___lwdiv@dividend
  1067  03C0  120A  118A  2652  120A  118A  	fcall	___lwdiv
  1068  03C5  0873               	movf	?___lwdiv,w
  1069  03C6  1283               	bcf	3,5	;RP0=0, select bank0
  1070  03C7  1303               	bcf	3,6	;RP1=0, select bank0
  1071  03C8  00CF               	movwf	??_WriteFloat
  1072  03C9  084F               	movf	??_WriteFloat,w
  1073  03CA  00D4               	movwf	WriteFloat@unidad
  1074  03CB                     l1657:
  1075  03CB  0854               	movf	WriteFloat@unidad,w
  1076  03CC  00CF               	movwf	??_WriteFloat
  1077  03CD  01D0               	clrf	??_WriteFloat+1
  1078  03CE  084F               	movf	??_WriteFloat,w
  1079  03CF  00F3               	movwf	___wmul@multiplier
  1080  03D0  0850               	movf	??_WriteFloat+1,w
  1081  03D1  00F4               	movwf	___wmul@multiplier+1
  1082  03D2  309C               	movlw	156
  1083  03D3  00F5               	movwf	___wmul@multiplicand
  1084  03D4  30FF               	movlw	255
  1085  03D5  00F6               	movwf	___wmul@multiplicand+1
  1086  03D6  120A  118A  26C1  120A  118A  	fcall	___wmul
  1087  03DB  1283               	bcf	3,5	;RP0=0, select bank0
  1088  03DC  1303               	bcf	3,6	;RP1=0, select bank0
  1089  03DD  0857               	movf	WriteFloat@temp,w
  1090  03DE  0773               	addwf	?___wmul,w
  1091  03DF  00D7               	movwf	WriteFloat@temp
  1092  03E0  0858               	movf	WriteFloat@temp+1,w
  1093  03E1  1803               	skipnc
  1094  03E2  0A58               	incf	WriteFloat@temp+1,w
  1095  03E3  0774               	addwf	?___wmul+1,w
  1096  03E4  00D8               	movwf	WriteFloat@temp+1
  1097  03E5                     l1659:
  1098  03E5  300A               	movlw	10
  1099  03E6  00F3               	movwf	___lwdiv@divisor
  1100  03E7  3000               	movlw	0
  1101  03E8  00F4               	movwf	___lwdiv@divisor+1
  1102  03E9  0858               	movf	WriteFloat@temp+1,w
  1103  03EA  00F6               	movwf	___lwdiv@dividend+1
  1104  03EB  0857               	movf	WriteFloat@temp,w
  1105  03EC  00F5               	movwf	___lwdiv@dividend
  1106  03ED  120A  118A  2652  120A  118A  	fcall	___lwdiv
  1107  03F2  0873               	movf	?___lwdiv,w
  1108  03F3  1283               	bcf	3,5	;RP0=0, select bank0
  1109  03F4  1303               	bcf	3,6	;RP1=0, select bank0
  1110  03F5  00CF               	movwf	??_WriteFloat
  1111  03F6  084F               	movf	??_WriteFloat,w
  1112  03F7  00D5               	movwf	WriteFloat@dec
  1113  03F8                     l1661:
  1114  03F8  0855               	movf	WriteFloat@dec,w
  1115  03F9  00CF               	movwf	??_WriteFloat
  1116  03FA  01D0               	clrf	??_WriteFloat+1
  1117  03FB  084F               	movf	??_WriteFloat,w
  1118  03FC  00F3               	movwf	___wmul@multiplier
  1119  03FD  0850               	movf	??_WriteFloat+1,w
  1120  03FE  00F4               	movwf	___wmul@multiplier+1
  1121  03FF  30F6               	movlw	246
  1122  0400  00F5               	movwf	___wmul@multiplicand
  1123  0401  30FF               	movlw	255
  1124  0402  00F6               	movwf	___wmul@multiplicand+1
  1125  0403  120A  118A  26C1  120A  118A  	fcall	___wmul
  1126  0408  1283               	bcf	3,5	;RP0=0, select bank0
  1127  0409  1303               	bcf	3,6	;RP1=0, select bank0
  1128  040A  0857               	movf	WriteFloat@temp,w
  1129  040B  0773               	addwf	?___wmul,w
  1130  040C  00D7               	movwf	WriteFloat@temp
  1131  040D  0858               	movf	WriteFloat@temp+1,w
  1132  040E  1803               	skipnc
  1133  040F  0A58               	incf	WriteFloat@temp+1,w
  1134  0410  0774               	addwf	?___wmul+1,w
  1135  0411  00D8               	movwf	WriteFloat@temp+1
  1136  0412                     l1663:
  1137  0412  0857               	movf	WriteFloat@temp,w
  1138  0413  00CF               	movwf	??_WriteFloat
  1139  0414  084F               	movf	??_WriteFloat,w
  1140  0415  00D3               	movwf	WriteFloat@cent
  1141  0416                     l1665:
  1142  0416  0854               	movf	WriteFloat@unidad,w
  1143  0417  3E30               	addlw	48
  1144  0418  00CF               	movwf	??_WriteFloat
  1145  0419  084F               	movf	??_WriteFloat,w
  1146  041A  00D4               	movwf	WriteFloat@unidad
  1147  041B                     l1667:
  1148  041B  0855               	movf	WriteFloat@dec,w
  1149  041C  3E30               	addlw	48
  1150  041D  00CF               	movwf	??_WriteFloat
  1151  041E  084F               	movf	??_WriteFloat,w
  1152  041F  00D5               	movwf	WriteFloat@dec
  1153  0420                     l1669:
  1154  0420  0853               	movf	WriteFloat@cent,w
  1155  0421  3E30               	addlw	48
  1156  0422  00CF               	movwf	??_WriteFloat
  1157  0423  084F               	movf	??_WriteFloat,w
  1158  0424  00D3               	movwf	WriteFloat@cent
  1159  0425                     l1671:
  1160  0425  084D               	movf	WriteFloat@columna,w
  1161  0426  00CF               	movwf	??_WriteFloat
  1162  0427  084F               	movf	??_WriteFloat,w
  1163  0428  00F7               	movwf	Lcd_Set_Cursor@b
  1164  0429  0856               	movf	WriteFloat@fila,w
  1165  042A  120A  118A  2746  120A  118A  	fcall	_Lcd_Set_Cursor
  1166  042F                     l1673:
  1167  042F  1283               	bcf	3,5	;RP0=0, select bank0
  1168  0430  1303               	bcf	3,6	;RP1=0, select bank0
  1169  0431  0854               	movf	WriteFloat@unidad,w
  1170  0432  120A  118A  2793  120A  118A  	fcall	_Lcd_Write_Char
  1171  0437                     l1675:
  1172  0437  1283               	bcf	3,5	;RP0=0, select bank0
  1173  0438  1303               	bcf	3,6	;RP1=0, select bank0
  1174  0439  084D               	movf	WriteFloat@columna,w
  1175  043A  3E01               	addlw	1
  1176  043B  00CF               	movwf	??_WriteFloat
  1177  043C  084F               	movf	??_WriteFloat,w
  1178  043D  00F7               	movwf	Lcd_Set_Cursor@b
  1179  043E  0856               	movf	WriteFloat@fila,w
  1180  043F  120A  118A  2746  120A  118A  	fcall	_Lcd_Set_Cursor
  1181  0444                     l1677:
  1182  0444  3010               	movlw	(low ((STR_2-__stringbase)| (0+32768)))& (0+255)
  1183  0445  120A  118A  26E6  120A  118A  	fcall	_Lcd_Write_String
  1184  044A                     l1679:
  1185  044A  1283               	bcf	3,5	;RP0=0, select bank0
  1186  044B  1303               	bcf	3,6	;RP1=0, select bank0
  1187  044C  084D               	movf	WriteFloat@columna,w
  1188  044D  3E02               	addlw	2
  1189  044E  00CF               	movwf	??_WriteFloat
  1190  044F  084F               	movf	??_WriteFloat,w
  1191  0450  00F7               	movwf	Lcd_Set_Cursor@b
  1192  0451  0856               	movf	WriteFloat@fila,w
  1193  0452  120A  118A  2746  120A  118A  	fcall	_Lcd_Set_Cursor
  1194  0457                     l1681:
  1195  0457  1283               	bcf	3,5	;RP0=0, select bank0
  1196  0458  1303               	bcf	3,6	;RP1=0, select bank0
  1197  0459  0855               	movf	WriteFloat@dec,w
  1198  045A  120A  118A  2793  120A  118A  	fcall	_Lcd_Write_Char
  1199  045F                     l1683:
  1200  045F  1283               	bcf	3,5	;RP0=0, select bank0
  1201  0460  1303               	bcf	3,6	;RP1=0, select bank0
  1202  0461  084D               	movf	WriteFloat@columna,w
  1203  0462  3E03               	addlw	3
  1204  0463  00CF               	movwf	??_WriteFloat
  1205  0464  084F               	movf	??_WriteFloat,w
  1206  0465  00F7               	movwf	Lcd_Set_Cursor@b
  1207  0466  0856               	movf	WriteFloat@fila,w
  1208  0467  120A  118A  2746  120A  118A  	fcall	_Lcd_Set_Cursor
  1209  046C                     l1685:
  1210  046C  1283               	bcf	3,5	;RP0=0, select bank0
  1211  046D  1303               	bcf	3,6	;RP1=0, select bank0
  1212  046E  0853               	movf	WriteFloat@cent,w
  1213  046F  120A  118A  2793  120A  118A  	fcall	_Lcd_Write_Char
  1214  0474                     l66:
  1215  0474  0008               	return
  1216  0475                     __end_of_WriteFloat:
  1217                           
  1218                           	psect	text3
  1219  0475                     __ptext3:	
  1220 ;; *************** function ___xxtofl *****************
  1221 ;; Defined at:
  1222 ;;		line 10 in file "C:\Program Files\Microchip\xc8\v2.31\pic\sources\c90\common\xxtofl.c"
  1223 ;; Parameters:    Size  Location     Type
  1224 ;;  sign            1    wreg     unsigned char 
  1225 ;;  val             4    3[COMMON] long 
  1226 ;; Auto vars:     Size  Location     Type
  1227 ;;  sign            1    4[BANK0 ] unsigned char 
  1228 ;;  arg             4    6[BANK0 ] unsigned long 
  1229 ;;  exp             1    5[BANK0 ] unsigned char 
  1230 ;; Return value:  Size  Location     Type
  1231 ;;                  4    3[COMMON] unsigned char 
  1232 ;; Registers used:
  1233 ;;		wreg, status,2, status,0
  1234 ;; Tracked objects:
  1235 ;;		On entry : 0/0
  1236 ;;		On exit  : 0/0
  1237 ;;		Unchanged: 0/0
  1238 ;; Data sizes:     COMMON   BANK0   BANK1   BANK3   BANK2
  1239 ;;      Params:         4       0       0       0       0
  1240 ;;      Locals:         0       6       0       0       0
  1241 ;;      Temps:          0       4       0       0       0
  1242 ;;      Totals:         4      10       0       0       0
  1243 ;;Total ram usage:       14 bytes
  1244 ;; Hardware stack levels used:    1
  1245 ;; Hardware stack levels required when called:    2
  1246 ;; This function calls:
  1247 ;;		Nothing
  1248 ;; This function is called by:
  1249 ;;		_WriteFloat
  1250 ;; This function uses a non-reentrant model
  1251 ;;
  1252                           
  1253                           
  1254                           ;psect for function ___xxtofl
  1255  0475                     ___xxtofl:
  1256                           
  1257                           ;incstack = 0
  1258                           ; Regs used in ___xxtofl: [wreg+status,2+status,0]
  1259                           ;___xxtofl@sign stored from wreg
  1260  0475  1283               	bcf	3,5	;RP0=0, select bank0
  1261  0476  1303               	bcf	3,6	;RP1=0, select bank0
  1262  0477  00A4               	movwf	___xxtofl@sign
  1263  0478                     l1609:
  1264  0478  0824               	movf	___xxtofl@sign,w
  1265  0479  1903               	btfsc	3,2
  1266  047A  2C7C               	goto	u1771
  1267  047B  2C7D               	goto	u1770
  1268  047C                     u1771:
  1269  047C  2C91               	goto	l1615
  1270  047D                     u1770:
  1271  047D                     l1611:
  1272  047D  1FF6               	btfss	___xxtofl@val+3,7
  1273  047E  2C80               	goto	u1781
  1274  047F  2C81               	goto	u1780
  1275  0480                     u1781:
  1276  0480  2C91               	goto	l1615
  1277  0481                     u1780:
  1278  0481                     l1613:
  1279  0481  0973               	comf	___xxtofl@val,w
  1280  0482  00A6               	movwf	___xxtofl@arg
  1281  0483  0974               	comf	___xxtofl@val+1,w
  1282  0484  00A7               	movwf	___xxtofl@arg+1
  1283  0485  0975               	comf	___xxtofl@val+2,w
  1284  0486  00A8               	movwf	___xxtofl@arg+2
  1285  0487  0976               	comf	___xxtofl@val+3,w
  1286  0488  00A9               	movwf	___xxtofl@arg+3
  1287  0489  0AA6               	incf	___xxtofl@arg,f
  1288  048A  1903               	skipnz
  1289  048B  0AA7               	incf	___xxtofl@arg+1,f
  1290  048C  1903               	skipnz
  1291  048D  0AA8               	incf	___xxtofl@arg+2,f
  1292  048E  1903               	skipnz
  1293  048F  0AA9               	incf	___xxtofl@arg+3,f
  1294  0490  2C99               	goto	l652
  1295  0491                     l1615:
  1296  0491  0876               	movf	___xxtofl@val+3,w
  1297  0492  00A9               	movwf	___xxtofl@arg+3
  1298  0493  0875               	movf	___xxtofl@val+2,w
  1299  0494  00A8               	movwf	___xxtofl@arg+2
  1300  0495  0874               	movf	___xxtofl@val+1,w
  1301  0496  00A7               	movwf	___xxtofl@arg+1
  1302  0497  0873               	movf	___xxtofl@val,w
  1303  0498  00A6               	movwf	___xxtofl@arg
  1304  0499                     l652:
  1305  0499  0876               	movf	___xxtofl@val+3,w
  1306  049A  0475               	iorwf	___xxtofl@val+2,w
  1307  049B  0474               	iorwf	___xxtofl@val+1,w
  1308  049C  0473               	iorwf	___xxtofl@val,w
  1309  049D  1D03               	skipz
  1310  049E  2CA0               	goto	u1791
  1311  049F  2CA1               	goto	u1790
  1312  04A0                     u1791:
  1313  04A0  2CAA               	goto	l1621
  1314  04A1                     u1790:
  1315  04A1                     l1617:
  1316  04A1  3000               	movlw	0
  1317  04A2  00F6               	movwf	?___xxtofl+3
  1318  04A3  3000               	movlw	0
  1319  04A4  00F5               	movwf	?___xxtofl+2
  1320  04A5  3000               	movlw	0
  1321  04A6  00F4               	movwf	?___xxtofl+1
  1322  04A7  3000               	movlw	0
  1323  04A8  00F3               	movwf	?___xxtofl
  1324  04A9  2D30               	goto	l654
  1325  04AA                     l1621:
  1326  04AA  3096               	movlw	150
  1327  04AB  00A0               	movwf	??___xxtofl
  1328  04AC  0820               	movf	??___xxtofl,w
  1329  04AD  00A5               	movwf	___xxtofl@exp
  1330  04AE  2CBC               	goto	l1625
  1331  04AF                     l1623:
  1332  04AF  3001               	movlw	1
  1333  04B0  00A0               	movwf	??___xxtofl
  1334  04B1  0820               	movf	??___xxtofl,w
  1335  04B2  07A5               	addwf	___xxtofl@exp,f
  1336  04B3  3001               	movlw	1
  1337  04B4                     u1805:
  1338  04B4  1003               	clrc
  1339  04B5  0CA9               	rrf	___xxtofl@arg+3,f
  1340  04B6  0CA8               	rrf	___xxtofl@arg+2,f
  1341  04B7  0CA7               	rrf	___xxtofl@arg+1,f
  1342  04B8  0CA6               	rrf	___xxtofl@arg,f
  1343  04B9  3EFF               	addlw	-1
  1344  04BA  1D03               	skipz
  1345  04BB  2CB4               	goto	u1805
  1346  04BC                     l1625:
  1347  04BC  30FE               	movlw	254
  1348  04BD  0529               	andwf	___xxtofl@arg+3,w
  1349  04BE  1D03               	btfss	3,2
  1350  04BF  2CC1               	goto	u1811
  1351  04C0  2CC2               	goto	u1810
  1352  04C1                     u1811:
  1353  04C1  2CAF               	goto	l1623
  1354  04C2                     u1810:
  1355  04C2  2CDE               	goto	l658
  1356  04C3                     l1627:
  1357  04C3  3001               	movlw	1
  1358  04C4  00A0               	movwf	??___xxtofl
  1359  04C5  0820               	movf	??___xxtofl,w
  1360  04C6  07A5               	addwf	___xxtofl@exp,f
  1361  04C7                     l1629:
  1362  04C7  3001               	movlw	1
  1363  04C8  07A6               	addwf	___xxtofl@arg,f
  1364  04C9  3000               	movlw	0
  1365  04CA  1803               	skipnc
  1366  04CB  3001               	movlw	1
  1367  04CC  07A7               	addwf	___xxtofl@arg+1,f
  1368  04CD  3000               	movlw	0
  1369  04CE  1803               	skipnc
  1370  04CF  3001               	movlw	1
  1371  04D0  07A8               	addwf	___xxtofl@arg+2,f
  1372  04D1  3000               	movlw	0
  1373  04D2  1803               	skipnc
  1374  04D3  3001               	movlw	1
  1375  04D4  07A9               	addwf	___xxtofl@arg+3,f
  1376  04D5                     l1631:
  1377  04D5  3001               	movlw	1
  1378  04D6                     u1825:
  1379  04D6  1003               	clrc
  1380  04D7  0CA9               	rrf	___xxtofl@arg+3,f
  1381  04D8  0CA8               	rrf	___xxtofl@arg+2,f
  1382  04D9  0CA7               	rrf	___xxtofl@arg+1,f
  1383  04DA  0CA6               	rrf	___xxtofl@arg,f
  1384  04DB  3EFF               	addlw	-1
  1385  04DC  1D03               	skipz
  1386  04DD  2CD6               	goto	u1825
  1387  04DE                     l658:
  1388  04DE  30FF               	movlw	255
  1389  04DF  0529               	andwf	___xxtofl@arg+3,w
  1390  04E0  1D03               	btfss	3,2
  1391  04E1  2CE3               	goto	u1831
  1392  04E2  2CE4               	goto	u1830
  1393  04E3                     u1831:
  1394  04E3  2CC3               	goto	l1627
  1395  04E4                     u1830:
  1396  04E4  2CF0               	goto	l1635
  1397  04E5                     l1633:
  1398  04E5  3001               	movlw	1
  1399  04E6  02A5               	subwf	___xxtofl@exp,f
  1400  04E7  3001               	movlw	1
  1401  04E8  00A0               	movwf	??___xxtofl
  1402  04E9                     u1845:
  1403  04E9  1003               	clrc
  1404  04EA  0DA6               	rlf	___xxtofl@arg,f
  1405  04EB  0DA7               	rlf	___xxtofl@arg+1,f
  1406  04EC  0DA8               	rlf	___xxtofl@arg+2,f
  1407  04ED  0DA9               	rlf	___xxtofl@arg+3,f
  1408  04EE  0BA0               	decfsz	??___xxtofl,f
  1409  04EF  2CE9               	goto	u1845
  1410  04F0                     l1635:
  1411  04F0  1BA8               	btfsc	___xxtofl@arg+2,7
  1412  04F1  2CF3               	goto	u1851
  1413  04F2  2CF4               	goto	u1850
  1414  04F3                     u1851:
  1415  04F3  2CFA               	goto	l665
  1416  04F4                     u1850:
  1417  04F4                     l1637:
  1418  04F4  3002               	movlw	2
  1419  04F5  0225               	subwf	___xxtofl@exp,w
  1420  04F6  1803               	skipnc
  1421  04F7  2CF9               	goto	u1861
  1422  04F8  2CFA               	goto	u1860
  1423  04F9                     u1861:
  1424  04F9  2CE5               	goto	l1633
  1425  04FA                     u1860:
  1426  04FA                     l665:
  1427  04FA  1825               	btfsc	___xxtofl@exp,0
  1428  04FB  2CFD               	goto	u1871
  1429  04FC  2CFE               	goto	u1870
  1430  04FD                     u1871:
  1431  04FD  2D06               	goto	l666
  1432  04FE                     u1870:
  1433  04FE                     l1639:
  1434  04FE  30FF               	movlw	255
  1435  04FF  05A6               	andwf	___xxtofl@arg,f
  1436  0500  30FF               	movlw	255
  1437  0501  05A7               	andwf	___xxtofl@arg+1,f
  1438  0502  307F               	movlw	127
  1439  0503  05A8               	andwf	___xxtofl@arg+2,f
  1440  0504  30FF               	movlw	255
  1441  0505  05A9               	andwf	___xxtofl@arg+3,f
  1442  0506                     l666:
  1443  0506  1003               	clrc
  1444  0507  0CA5               	rrf	___xxtofl@exp,f
  1445  0508                     l1641:
  1446  0508  0825               	movf	___xxtofl@exp,w
  1447  0509  00A0               	movwf	??___xxtofl
  1448  050A  01A1               	clrf	??___xxtofl+1
  1449  050B  01A2               	clrf	??___xxtofl+2
  1450  050C  01A3               	clrf	??___xxtofl+3
  1451  050D  3018               	movlw	24
  1452  050E                     u1885:
  1453  050E  1003               	clrc
  1454  050F  0DA0               	rlf	??___xxtofl,f
  1455  0510  0DA1               	rlf	??___xxtofl+1,f
  1456  0511  0DA2               	rlf	??___xxtofl+2,f
  1457  0512  0DA3               	rlf	??___xxtofl+3,f
  1458  0513                     u1880:
  1459  0513  3EFF               	addlw	-1
  1460  0514  1D03               	skipz
  1461  0515  2D0E               	goto	u1885
  1462  0516  0820               	movf	??___xxtofl,w
  1463  0517  04A6               	iorwf	___xxtofl@arg,f
  1464  0518  0821               	movf	??___xxtofl+1,w
  1465  0519  04A7               	iorwf	___xxtofl@arg+1,f
  1466  051A  0822               	movf	??___xxtofl+2,w
  1467  051B  04A8               	iorwf	___xxtofl@arg+2,f
  1468  051C  0823               	movf	??___xxtofl+3,w
  1469  051D  04A9               	iorwf	___xxtofl@arg+3,f
  1470  051E                     l1643:
  1471  051E  0824               	movf	___xxtofl@sign,w
  1472  051F  1903               	btfsc	3,2
  1473  0520  2D22               	goto	u1891
  1474  0521  2D23               	goto	u1890
  1475  0522                     u1891:
  1476  0522  2D28               	goto	l1649
  1477  0523                     u1890:
  1478  0523                     l1645:
  1479  0523  1FF6               	btfss	___xxtofl@val+3,7
  1480  0524  2D26               	goto	u1901
  1481  0525  2D27               	goto	u1900
  1482  0526                     u1901:
  1483  0526  2D28               	goto	l1649
  1484  0527                     u1900:
  1485  0527                     l1647:
  1486  0527  17A9               	bsf	___xxtofl@arg+3,7
  1487  0528                     l1649:
  1488  0528  0829               	movf	___xxtofl@arg+3,w
  1489  0529  00F6               	movwf	?___xxtofl+3
  1490  052A  0828               	movf	___xxtofl@arg+2,w
  1491  052B  00F5               	movwf	?___xxtofl+2
  1492  052C  0827               	movf	___xxtofl@arg+1,w
  1493  052D  00F4               	movwf	?___xxtofl+1
  1494  052E  0826               	movf	___xxtofl@arg,w
  1495  052F  00F3               	movwf	?___xxtofl
  1496  0530                     l654:
  1497  0530  0008               	return
  1498  0531                     __end_of___xxtofl:
  1499                           
  1500                           	psect	text4
  1501  06C1                     __ptext4:	
  1502 ;; *************** function ___wmul *****************
  1503 ;; Defined at:
  1504 ;;		line 15 in file "C:\Program Files\Microchip\xc8\v2.31\pic\sources\c90\common\Umul16.c"
  1505 ;; Parameters:    Size  Location     Type
  1506 ;;  multiplier      2    3[COMMON] unsigned int 
  1507 ;;  multiplicand    2    5[COMMON] unsigned int 
  1508 ;; Auto vars:     Size  Location     Type
  1509 ;;  product         2    7[COMMON] unsigned int 
  1510 ;; Return value:  Size  Location     Type
  1511 ;;                  2    3[COMMON] unsigned int 
  1512 ;; Registers used:
  1513 ;;		wreg, status,2, status,0
  1514 ;; Tracked objects:
  1515 ;;		On entry : 0/0
  1516 ;;		On exit  : 0/0
  1517 ;;		Unchanged: 0/0
  1518 ;; Data sizes:     COMMON   BANK0   BANK1   BANK3   BANK2
  1519 ;;      Params:         4       0       0       0       0
  1520 ;;      Locals:         2       0       0       0       0
  1521 ;;      Temps:          0       0       0       0       0
  1522 ;;      Totals:         6       0       0       0       0
  1523 ;;Total ram usage:        6 bytes
  1524 ;; Hardware stack levels used:    1
  1525 ;; Hardware stack levels required when called:    2
  1526 ;; This function calls:
  1527 ;;		Nothing
  1528 ;; This function is called by:
  1529 ;;		_WriteFloat
  1530 ;; This function uses a non-reentrant model
  1531 ;;
  1532                           
  1533                           
  1534                           ;psect for function ___wmul
  1535  06C1                     ___wmul:
  1536  06C1                     l1201:	
  1537                           ;incstack = 0
  1538                           ; Regs used in ___wmul: [wreg+status,2+status,0]
  1539                           
  1540  06C1  01F7               	clrf	___wmul@product
  1541  06C2  01F8               	clrf	___wmul@product+1
  1542  06C3                     l1203:
  1543  06C3  1C73               	btfss	___wmul@multiplier,0
  1544  06C4  2EC6               	goto	u881
  1545  06C5  2EC7               	goto	u880
  1546  06C6                     u881:
  1547  06C6  2ECD               	goto	l219
  1548  06C7                     u880:
  1549  06C7                     l1205:
  1550  06C7  0875               	movf	___wmul@multiplicand,w
  1551  06C8  07F7               	addwf	___wmul@product,f
  1552  06C9  1803               	skipnc
  1553  06CA  0AF8               	incf	___wmul@product+1,f
  1554  06CB  0876               	movf	___wmul@multiplicand+1,w
  1555  06CC  07F8               	addwf	___wmul@product+1,f
  1556  06CD                     l219:
  1557  06CD  3001               	movlw	1
  1558  06CE                     u895:
  1559  06CE  1003               	clrc
  1560  06CF  0DF5               	rlf	___wmul@multiplicand,f
  1561  06D0  0DF6               	rlf	___wmul@multiplicand+1,f
  1562  06D1  3EFF               	addlw	-1
  1563  06D2  1D03               	skipz
  1564  06D3  2ECE               	goto	u895
  1565  06D4                     l1207:
  1566  06D4  3001               	movlw	1
  1567  06D5                     u905:
  1568  06D5  1003               	clrc
  1569  06D6  0CF4               	rrf	___wmul@multiplier+1,f
  1570  06D7  0CF3               	rrf	___wmul@multiplier,f
  1571  06D8  3EFF               	addlw	-1
  1572  06D9  1D03               	skipz
  1573  06DA  2ED5               	goto	u905
  1574  06DB                     l1209:
  1575  06DB  0873               	movf	___wmul@multiplier,w
  1576  06DC  0474               	iorwf	___wmul@multiplier+1,w
  1577  06DD  1D03               	btfss	3,2
  1578  06DE  2EE0               	goto	u911
  1579  06DF  2EE1               	goto	u910
  1580  06E0                     u911:
  1581  06E0  2EC3               	goto	l1203
  1582  06E1                     u910:
  1583  06E1                     l1211:
  1584  06E1  0878               	movf	___wmul@product+1,w
  1585  06E2  00F4               	movwf	?___wmul+1
  1586  06E3  0877               	movf	___wmul@product,w
  1587  06E4  00F3               	movwf	?___wmul
  1588  06E5                     l221:
  1589  06E5  0008               	return
  1590  06E6                     __end_of___wmul:
  1591                           
  1592                           	psect	text5
  1593  0652                     __ptext5:	
  1594 ;; *************** function ___lwdiv *****************
  1595 ;; Defined at:
  1596 ;;		line 5 in file "C:\Program Files\Microchip\xc8\v2.31\pic\sources\c90\common\lwdiv.c"
  1597 ;; Parameters:    Size  Location     Type
  1598 ;;  divisor         2    3[COMMON] unsigned int 
  1599 ;;  dividend        2    5[COMMON] unsigned int 
  1600 ;; Auto vars:     Size  Location     Type
  1601 ;;  quotient        2    1[BANK0 ] unsigned int 
  1602 ;;  counter         1    0[BANK0 ] unsigned char 
  1603 ;; Return value:  Size  Location     Type
  1604 ;;                  2    3[COMMON] unsigned int 
  1605 ;; Registers used:
  1606 ;;		wreg, status,2, status,0
  1607 ;; Tracked objects:
  1608 ;;		On entry : 0/0
  1609 ;;		On exit  : 0/0
  1610 ;;		Unchanged: 0/0
  1611 ;; Data sizes:     COMMON   BANK0   BANK1   BANK3   BANK2
  1612 ;;      Params:         4       0       0       0       0
  1613 ;;      Locals:         0       3       0       0       0
  1614 ;;      Temps:          1       0       0       0       0
  1615 ;;      Totals:         5       3       0       0       0
  1616 ;;Total ram usage:        8 bytes
  1617 ;; Hardware stack levels used:    1
  1618 ;; Hardware stack levels required when called:    2
  1619 ;; This function calls:
  1620 ;;		Nothing
  1621 ;; This function is called by:
  1622 ;;		_WriteFloat
  1623 ;; This function uses a non-reentrant model
  1624 ;;
  1625                           
  1626                           
  1627                           ;psect for function ___lwdiv
  1628  0652                     ___lwdiv:
  1629  0652                     l1583:	
  1630                           ;incstack = 0
  1631                           ; Regs used in ___lwdiv: [wreg+status,2+status,0]
  1632                           
  1633  0652  1283               	bcf	3,5	;RP0=0, select bank0
  1634  0653  1303               	bcf	3,6	;RP1=0, select bank0
  1635  0654  01A1               	clrf	___lwdiv@quotient
  1636  0655  01A2               	clrf	___lwdiv@quotient+1
  1637  0656                     l1585:
  1638  0656  0873               	movf	___lwdiv@divisor,w
  1639  0657  0474               	iorwf	___lwdiv@divisor+1,w
  1640  0658  1903               	btfsc	3,2
  1641  0659  2E5B               	goto	u1701
  1642  065A  2E5C               	goto	u1700
  1643  065B                     u1701:
  1644  065B  2E93               	goto	l1605
  1645  065C                     u1700:
  1646  065C                     l1587:
  1647  065C  01A0               	clrf	___lwdiv@counter
  1648  065D  0AA0               	incf	___lwdiv@counter,f
  1649  065E  2E6A               	goto	l1593
  1650  065F                     l1589:
  1651  065F  3001               	movlw	1
  1652  0660                     u1715:
  1653  0660  1003               	clrc
  1654  0661  0DF3               	rlf	___lwdiv@divisor,f
  1655  0662  0DF4               	rlf	___lwdiv@divisor+1,f
  1656  0663  3EFF               	addlw	-1
  1657  0664  1D03               	skipz
  1658  0665  2E60               	goto	u1715
  1659  0666                     l1591:
  1660  0666  3001               	movlw	1
  1661  0667  00F7               	movwf	??___lwdiv
  1662  0668  0877               	movf	??___lwdiv,w
  1663  0669  07A0               	addwf	___lwdiv@counter,f
  1664  066A                     l1593:
  1665  066A  1FF4               	btfss	___lwdiv@divisor+1,7
  1666  066B  2E6D               	goto	u1721
  1667  066C  2E6E               	goto	u1720
  1668  066D                     u1721:
  1669  066D  2E5F               	goto	l1589
  1670  066E                     u1720:
  1671  066E                     l1595:
  1672  066E  3001               	movlw	1
  1673  066F                     u1735:
  1674  066F  1003               	clrc
  1675  0670  0DA1               	rlf	___lwdiv@quotient,f
  1676  0671  0DA2               	rlf	___lwdiv@quotient+1,f
  1677  0672  3EFF               	addlw	-1
  1678  0673  1D03               	skipz
  1679  0674  2E6F               	goto	u1735
  1680  0675  0874               	movf	___lwdiv@divisor+1,w
  1681  0676  0276               	subwf	___lwdiv@dividend+1,w
  1682  0677  1D03               	skipz
  1683  0678  2E7B               	goto	u1745
  1684  0679  0873               	movf	___lwdiv@divisor,w
  1685  067A  0275               	subwf	___lwdiv@dividend,w
  1686  067B                     u1745:
  1687  067B  1C03               	skipc
  1688  067C  2E7E               	goto	u1741
  1689  067D  2E7F               	goto	u1740
  1690  067E                     u1741:
  1691  067E  2E86               	goto	l1601
  1692  067F                     u1740:
  1693  067F                     l1597:
  1694  067F  0873               	movf	___lwdiv@divisor,w
  1695  0680  02F5               	subwf	___lwdiv@dividend,f
  1696  0681  0874               	movf	___lwdiv@divisor+1,w
  1697  0682  1C03               	skipc
  1698  0683  03F6               	decf	___lwdiv@dividend+1,f
  1699  0684  02F6               	subwf	___lwdiv@dividend+1,f
  1700  0685                     l1599:
  1701  0685  1421               	bsf	___lwdiv@quotient,0
  1702  0686                     l1601:
  1703  0686  3001               	movlw	1
  1704  0687                     u1755:
  1705  0687  1003               	clrc
  1706  0688  0CF4               	rrf	___lwdiv@divisor+1,f
  1707  0689  0CF3               	rrf	___lwdiv@divisor,f
  1708  068A  3EFF               	addlw	-1
  1709  068B  1D03               	skipz
  1710  068C  2E87               	goto	u1755
  1711  068D                     l1603:
  1712  068D  3001               	movlw	1
  1713  068E  02A0               	subwf	___lwdiv@counter,f
  1714  068F  1D03               	btfss	3,2
  1715  0690  2E92               	goto	u1761
  1716  0691  2E93               	goto	u1760
  1717  0692                     u1761:
  1718  0692  2E6E               	goto	l1595
  1719  0693                     u1760:
  1720  0693                     l1605:
  1721  0693  0822               	movf	___lwdiv@quotient+1,w
  1722  0694  00F4               	movwf	?___lwdiv+1
  1723  0695  0821               	movf	___lwdiv@quotient,w
  1724  0696  00F3               	movwf	?___lwdiv
  1725  0697                     l491:
  1726  0697  0008               	return
  1727  0698                     __end_of___lwdiv:
  1728                           
  1729                           	psect	text6
  1730  0531                     __ptext6:	
  1731 ;; *************** function ___fltol *****************
  1732 ;; Defined at:
  1733 ;;		line 43 in file "C:\Program Files\Microchip\xc8\v2.31\pic\sources\c90\common\fltol.c"
  1734 ;; Parameters:    Size  Location     Type
  1735 ;;  f1              4   36[BANK0 ] unsigned int 
  1736 ;; Auto vars:     Size  Location     Type
  1737 ;;  exp1            1    8[COMMON] unsigned char 
  1738 ;;  sign1           1    7[COMMON] unsigned char 
  1739 ;; Return value:  Size  Location     Type
  1740 ;;                  4   36[BANK0 ] long 
  1741 ;; Registers used:
  1742 ;;		wreg, status,2, status,0
  1743 ;; Tracked objects:
  1744 ;;		On entry : 0/0
  1745 ;;		On exit  : 0/0
  1746 ;;		Unchanged: 0/0
  1747 ;; Data sizes:     COMMON   BANK0   BANK1   BANK3   BANK2
  1748 ;;      Params:         0       4       0       0       0
  1749 ;;      Locals:         2       0       0       0       0
  1750 ;;      Temps:          0       5       0       0       0
  1751 ;;      Totals:         2       9       0       0       0
  1752 ;;Total ram usage:       11 bytes
  1753 ;; Hardware stack levels used:    1
  1754 ;; Hardware stack levels required when called:    2
  1755 ;; This function calls:
  1756 ;;		Nothing
  1757 ;; This function is called by:
  1758 ;;		_WriteFloat
  1759 ;; This function uses a non-reentrant model
  1760 ;;
  1761                           
  1762                           
  1763                           ;psect for function ___fltol
  1764  0531                     ___fltol:
  1765  0531                     l1547:	
  1766                           ;incstack = 0
  1767                           ; Regs used in ___fltol: [wreg+status,2+status,0]
  1768                           
  1769  0531  1003               	clrc
  1770  0532  1283               	bcf	3,5	;RP0=0, select bank0
  1771  0533  1303               	bcf	3,6	;RP1=0, select bank0
  1772  0534  0D46               	rlf	___fltol@f1+2,w
  1773  0535  0D47               	rlf	___fltol@f1+3,w
  1774  0536  00C8               	movwf	??___fltol
  1775  0537  0848               	movf	??___fltol,w
  1776  0538  00F8               	movwf	___fltol@exp1
  1777  0539  0878               	movf	___fltol@exp1,w
  1778  053A  1D03               	btfss	3,2
  1779  053B  2D3D               	goto	u1601
  1780  053C  2D3E               	goto	u1600
  1781  053D                     u1601:
  1782  053D  2D47               	goto	l1553
  1783  053E                     u1600:
  1784  053E                     l1549:
  1785  053E  3000               	movlw	0
  1786  053F  00C7               	movwf	?___fltol+3
  1787  0540  3000               	movlw	0
  1788  0541  00C6               	movwf	?___fltol+2
  1789  0542  3000               	movlw	0
  1790  0543  00C5               	movwf	?___fltol+1
  1791  0544  3000               	movlw	0
  1792  0545  00C4               	movwf	?___fltol
  1793  0546  2DAC               	goto	l405
  1794  0547                     l1553:
  1795  0547  0844               	movf	___fltol@f1,w
  1796  0548  00C8               	movwf	??___fltol
  1797  0549  0845               	movf	___fltol@f1+1,w
  1798  054A  00C9               	movwf	??___fltol+1
  1799  054B  0846               	movf	___fltol@f1+2,w
  1800  054C  00CA               	movwf	??___fltol+2
  1801  054D  0847               	movf	___fltol@f1+3,w
  1802  054E  00CB               	movwf	??___fltol+3
  1803  054F  301F               	movlw	31
  1804  0550                     u1615:
  1805  0550  1003               	clrc
  1806  0551  0CCB               	rrf	??___fltol+3,f
  1807  0552  0CCA               	rrf	??___fltol+2,f
  1808  0553  0CC9               	rrf	??___fltol+1,f
  1809  0554  0CC8               	rrf	??___fltol,f
  1810  0555                     u1610:
  1811  0555  3EFF               	addlw	-1
  1812  0556  1D03               	skipz
  1813  0557  2D50               	goto	u1615
  1814  0558  0848               	movf	??___fltol,w
  1815  0559  00CC               	movwf	??___fltol+4
  1816  055A  084C               	movf	??___fltol+4,w
  1817  055B  00F7               	movwf	___fltol@sign1
  1818  055C                     l1555:
  1819  055C  17C6               	bsf	___fltol@f1+2,7
  1820  055D                     l1557:
  1821  055D  30FF               	movlw	255
  1822  055E  05C4               	andwf	___fltol@f1,f
  1823  055F  30FF               	movlw	255
  1824  0560  05C5               	andwf	___fltol@f1+1,f
  1825  0561  30FF               	movlw	255
  1826  0562  05C6               	andwf	___fltol@f1+2,f
  1827  0563  3000               	movlw	0
  1828  0564  05C7               	andwf	___fltol@f1+3,f
  1829  0565                     l1559:
  1830  0565  3096               	movlw	150
  1831  0566  02F8               	subwf	___fltol@exp1,f
  1832  0567                     l1561:
  1833  0567  1FF8               	btfss	___fltol@exp1,7
  1834  0568  2D6A               	goto	u1621
  1835  0569  2D6B               	goto	u1620
  1836  056A                     u1621:
  1837  056A  2D85               	goto	l1571
  1838  056B                     u1620:
  1839  056B                     l1563:
  1840  056B  0878               	movf	___fltol@exp1,w
  1841  056C  3A80               	xorlw	128
  1842  056D  3E97               	addlw	151
  1843  056E  1803               	skipnc
  1844  056F  2D71               	goto	u1631
  1845  0570  2D72               	goto	u1630
  1846  0571                     u1631:
  1847  0571  2D73               	goto	l1569
  1848  0572                     u1630:
  1849  0572  2D3E               	goto	l1549
  1850  0573                     l1569:
  1851  0573  3001               	movlw	1
  1852  0574                     u1645:
  1853  0574  1003               	clrc
  1854  0575  0CC7               	rrf	___fltol@f1+3,f
  1855  0576  0CC6               	rrf	___fltol@f1+2,f
  1856  0577  0CC5               	rrf	___fltol@f1+1,f
  1857  0578  0CC4               	rrf	___fltol@f1,f
  1858  0579  3EFF               	addlw	-1
  1859  057A  1D03               	skipz
  1860  057B  2D74               	goto	u1645
  1861  057C  3001               	movlw	1
  1862  057D  00C8               	movwf	??___fltol
  1863  057E  0848               	movf	??___fltol,w
  1864  057F  07F8               	addwf	___fltol@exp1,f
  1865  0580  1D03               	btfss	3,2
  1866  0581  2D83               	goto	u1651
  1867  0582  2D84               	goto	u1650
  1868  0583                     u1651:
  1869  0583  2D73               	goto	l1569
  1870  0584                     u1650:
  1871  0584  2D9C               	goto	l1579
  1872  0585                     l1571:
  1873  0585  3020               	movlw	32
  1874  0586  0278               	subwf	___fltol@exp1,w
  1875  0587  1C03               	skipc
  1876  0588  2D8A               	goto	u1661
  1877  0589  2D8B               	goto	u1660
  1878  058A                     u1661:
  1879  058A  2D97               	goto	l412
  1880  058B                     u1660:
  1881  058B  2D3E               	goto	l1549
  1882  058C                     l1577:
  1883  058C  3001               	movlw	1
  1884  058D  00C8               	movwf	??___fltol
  1885  058E                     u1675:
  1886  058E  1003               	clrc
  1887  058F  0DC4               	rlf	___fltol@f1,f
  1888  0590  0DC5               	rlf	___fltol@f1+1,f
  1889  0591  0DC6               	rlf	___fltol@f1+2,f
  1890  0592  0DC7               	rlf	___fltol@f1+3,f
  1891  0593  0BC8               	decfsz	??___fltol,f
  1892  0594  2D8E               	goto	u1675
  1893  0595  3001               	movlw	1
  1894  0596  02F8               	subwf	___fltol@exp1,f
  1895  0597                     l412:
  1896  0597  0878               	movf	___fltol@exp1,w
  1897  0598  1D03               	btfss	3,2
  1898  0599  2D9B               	goto	u1681
  1899  059A  2D9C               	goto	u1680
  1900  059B                     u1681:
  1901  059B  2D8C               	goto	l1577
  1902  059C                     u1680:
  1903  059C                     l1579:
  1904  059C  0877               	movf	___fltol@sign1,w
  1905  059D  1903               	btfsc	3,2
  1906  059E  2DA0               	goto	u1691
  1907  059F  2DA1               	goto	u1690
  1908  05A0                     u1691:
  1909  05A0  2DAC               	goto	l415
  1910  05A1                     u1690:
  1911  05A1                     l1581:
  1912  05A1  09C4               	comf	___fltol@f1,f
  1913  05A2  09C5               	comf	___fltol@f1+1,f
  1914  05A3  09C6               	comf	___fltol@f1+2,f
  1915  05A4  09C7               	comf	___fltol@f1+3,f
  1916  05A5  0AC4               	incf	___fltol@f1,f
  1917  05A6  1903               	skipnz
  1918  05A7  0AC5               	incf	___fltol@f1+1,f
  1919  05A8  1903               	skipnz
  1920  05A9  0AC6               	incf	___fltol@f1+2,f
  1921  05AA  1903               	skipnz
  1922  05AB  0AC7               	incf	___fltol@f1+3,f
  1923  05AC                     l415:
  1924  05AC                     l405:
  1925  05AC  0008               	return
  1926  05AD                     __end_of___fltol:
  1927                           
  1928                           	psect	text7
  1929  0015                     __ptext7:	
  1930 ;; *************** function ___flmul *****************
  1931 ;; Defined at:
  1932 ;;		line 8 in file "C:\Program Files\Microchip\xc8\v2.31\pic\sources\c90\common\sprcmul.c"
  1933 ;; Parameters:    Size  Location     Type
  1934 ;;  b               4   10[BANK0 ] long 
  1935 ;;  a               4   14[BANK0 ] long 
  1936 ;; Auto vars:     Size  Location     Type
  1937 ;;  prod            4   30[BANK0 ] struct .
  1938 ;;  grs             4   24[BANK0 ] unsigned long 
  1939 ;;  temp            2   34[BANK0 ] struct .
  1940 ;;  bexp            1   29[BANK0 ] unsigned char 
  1941 ;;  aexp            1   28[BANK0 ] unsigned char 
  1942 ;;  sign            1   23[BANK0 ] unsigned char 
  1943 ;; Return value:  Size  Location     Type
  1944 ;;                  4   10[BANK0 ] unsigned char 
  1945 ;; Registers used:
  1946 ;;		wreg, status,2, status,0, btemp+1, pclath, cstack
  1947 ;; Tracked objects:
  1948 ;;		On entry : 0/0
  1949 ;;		On exit  : 0/0
  1950 ;;		Unchanged: 0/0
  1951 ;; Data sizes:     COMMON   BANK0   BANK1   BANK3   BANK2
  1952 ;;      Params:         0       8       0       0       0
  1953 ;;      Locals:         0      13       0       0       0
  1954 ;;      Temps:          0       5       0       0       0
  1955 ;;      Totals:         0      26       0       0       0
  1956 ;;Total ram usage:       26 bytes
  1957 ;; Hardware stack levels used:    1
  1958 ;; Hardware stack levels required when called:    3
  1959 ;; This function calls:
  1960 ;;		__Umul8_16
  1961 ;; This function is called by:
  1962 ;;		_WriteFloat
  1963 ;; This function uses a non-reentrant model
  1964 ;;
  1965                           
  1966                           
  1967                           ;psect for function ___flmul
  1968  0015                     ___flmul:
  1969  0015                     l1277:	
  1970                           ;incstack = 0
  1971                           ; Regs used in ___flmul: [wreg+status,2+status,0+btemp+1+pclath+cstack]
  1972                           
  1973  0015  1283               	bcf	3,5	;RP0=0, select bank0
  1974  0016  1303               	bcf	3,6	;RP1=0, select bank0
  1975  0017  082D               	movf	___flmul@b+3,w
  1976  0018  3980               	andlw	128
  1977  0019  00B2               	movwf	??___flmul
  1978  001A  0832               	movf	??___flmul,w
  1979  001B  00B7               	movwf	___flmul@sign
  1980  001C                     l1279:
  1981  001C  082D               	movf	___flmul@b+3,w
  1982  001D  00B2               	movwf	??___flmul
  1983  001E  0732               	addwf	??___flmul,w
  1984  001F  00B3               	movwf	??___flmul+1
  1985  0020  0833               	movf	??___flmul+1,w
  1986  0021  00BD               	movwf	___flmul@bexp
  1987  0022                     l1281:
  1988  0022  1FAC               	btfss	___flmul@b+2,7
  1989  0023  2825               	goto	u1091
  1990  0024  2826               	goto	u1090
  1991  0025                     u1091:
  1992  0025  2827               	goto	l1285
  1993  0026                     u1090:
  1994  0026                     l1283:
  1995  0026  143D               	bsf	___flmul@bexp,0
  1996  0027                     l1285:
  1997  0027  083D               	movf	___flmul@bexp,w
  1998  0028  1903               	btfsc	3,2
  1999  0029  282B               	goto	u1101
  2000  002A  282C               	goto	u1100
  2001  002B                     u1101:
  2002  002B  283B               	goto	l1293
  2003  002C                     u1100:
  2004  002C                     l1287:
  2005  002C  0A3D               	incf	___flmul@bexp,w
  2006  002D  1D03               	btfss	3,2
  2007  002E  2830               	goto	u1111
  2008  002F  2831               	goto	u1110
  2009  0030                     u1111:
  2010  0030  2839               	goto	l1291
  2011  0031                     u1110:
  2012  0031                     l1289:
  2013  0031  3000               	movlw	0
  2014  0032  00AD               	movwf	___flmul@b+3
  2015  0033  3000               	movlw	0
  2016  0034  00AC               	movwf	___flmul@b+2
  2017  0035  3000               	movlw	0
  2018  0036  00AB               	movwf	___flmul@b+1
  2019  0037  3000               	movlw	0
  2020  0038  00AA               	movwf	___flmul@b
  2021  0039                     l1291:
  2022  0039  17AC               	bsf	___flmul@b+2,7
  2023  003A  2843               	goto	l1295
  2024  003B                     l1293:
  2025  003B  3000               	movlw	0
  2026  003C  00AD               	movwf	___flmul@b+3
  2027  003D  3000               	movlw	0
  2028  003E  00AC               	movwf	___flmul@b+2
  2029  003F  3000               	movlw	0
  2030  0040  00AB               	movwf	___flmul@b+1
  2031  0041  3000               	movlw	0
  2032  0042  00AA               	movwf	___flmul@b
  2033  0043                     l1295:
  2034  0043  0831               	movf	___flmul@a+3,w
  2035  0044  3980               	andlw	128
  2036  0045  00B2               	movwf	??___flmul
  2037  0046  0832               	movf	??___flmul,w
  2038  0047  06B7               	xorwf	___flmul@sign,f
  2039  0048                     l1297:
  2040  0048  0831               	movf	___flmul@a+3,w
  2041  0049  00B2               	movwf	??___flmul
  2042  004A  0732               	addwf	??___flmul,w
  2043  004B  00B3               	movwf	??___flmul+1
  2044  004C  0833               	movf	??___flmul+1,w
  2045  004D  00BC               	movwf	___flmul@aexp
  2046  004E                     l1299:
  2047  004E  1FB0               	btfss	___flmul@a+2,7
  2048  004F  2851               	goto	u1121
  2049  0050  2852               	goto	u1120
  2050  0051                     u1121:
  2051  0051  2853               	goto	l1303
  2052  0052                     u1120:
  2053  0052                     l1301:
  2054  0052  143C               	bsf	___flmul@aexp,0
  2055  0053                     l1303:
  2056  0053  083C               	movf	___flmul@aexp,w
  2057  0054  1903               	btfsc	3,2
  2058  0055  2857               	goto	u1131
  2059  0056  2858               	goto	u1130
  2060  0057                     u1131:
  2061  0057  2867               	goto	l1311
  2062  0058                     u1130:
  2063  0058                     l1305:
  2064  0058  0A3C               	incf	___flmul@aexp,w
  2065  0059  1D03               	btfss	3,2
  2066  005A  285C               	goto	u1141
  2067  005B  285D               	goto	u1140
  2068  005C                     u1141:
  2069  005C  2865               	goto	l1309
  2070  005D                     u1140:
  2071  005D                     l1307:
  2072  005D  3000               	movlw	0
  2073  005E  00B1               	movwf	___flmul@a+3
  2074  005F  3000               	movlw	0
  2075  0060  00B0               	movwf	___flmul@a+2
  2076  0061  3000               	movlw	0
  2077  0062  00AF               	movwf	___flmul@a+1
  2078  0063  3000               	movlw	0
  2079  0064  00AE               	movwf	___flmul@a
  2080  0065                     l1309:
  2081  0065  17B0               	bsf	___flmul@a+2,7
  2082  0066  286F               	goto	l1313
  2083  0067                     l1311:
  2084  0067  3000               	movlw	0
  2085  0068  00B1               	movwf	___flmul@a+3
  2086  0069  3000               	movlw	0
  2087  006A  00B0               	movwf	___flmul@a+2
  2088  006B  3000               	movlw	0
  2089  006C  00AF               	movwf	___flmul@a+1
  2090  006D  3000               	movlw	0
  2091  006E  00AE               	movwf	___flmul@a
  2092  006F                     l1313:
  2093  006F  083C               	movf	___flmul@aexp,w
  2094  0070  1903               	btfsc	3,2
  2095  0071  2873               	goto	u1151
  2096  0072  2874               	goto	u1150
  2097  0073                     u1151:
  2098  0073  2879               	goto	l1317
  2099  0074                     u1150:
  2100  0074                     l1315:
  2101  0074  083D               	movf	___flmul@bexp,w
  2102  0075  1D03               	btfss	3,2
  2103  0076  2878               	goto	u1161
  2104  0077  2879               	goto	u1160
  2105  0078                     u1161:
  2106  0078  2882               	goto	l1321
  2107  0079                     u1160:
  2108  0079                     l1317:
  2109  0079  3000               	movlw	0
  2110  007A  00AD               	movwf	?___flmul+3
  2111  007B  3000               	movlw	0
  2112  007C  00AC               	movwf	?___flmul+2
  2113  007D  3000               	movlw	0
  2114  007E  00AB               	movwf	?___flmul+1
  2115  007F  3000               	movlw	0
  2116  0080  00AA               	movwf	?___flmul
  2117  0081  2B75               	goto	l608
  2118  0082                     l1321:
  2119  0082  082A               	movf	___flmul@b,w
  2120  0083  00B2               	movwf	??___flmul
  2121  0084  0832               	movf	??___flmul,w
  2122  0085  00F3               	movwf	__Umul8_16@multiplicand
  2123  0086  0830               	movf	___flmul@a+2,w
  2124  0087  120A  118A  2698  120A  118A  	fcall	__Umul8_16
  2125  008C  0874               	movf	?__Umul8_16+1,w
  2126  008D  1283               	bcf	3,5	;RP0=0, select bank0
  2127  008E  1303               	bcf	3,6	;RP1=0, select bank0
  2128  008F  00C3               	movwf	___flmul@temp+1
  2129  0090  0873               	movf	?__Umul8_16,w
  2130  0091  00C2               	movwf	___flmul@temp
  2131  0092                     l1323:
  2132  0092  0842               	movf	___flmul@temp,w
  2133  0093  00B2               	movwf	??___flmul
  2134  0094  01B3               	clrf	??___flmul+1
  2135  0095  01B4               	clrf	??___flmul+2
  2136  0096  01B5               	clrf	??___flmul+3
  2137  0097  0835               	movf	??___flmul+3,w
  2138  0098  00BB               	movwf	___flmul@grs+3
  2139  0099  0834               	movf	??___flmul+2,w
  2140  009A  00BA               	movwf	___flmul@grs+2
  2141  009B  0833               	movf	??___flmul+1,w
  2142  009C  00B9               	movwf	___flmul@grs+1
  2143  009D  0832               	movf	??___flmul,w
  2144  009E  00B8               	movwf	___flmul@grs
  2145  009F                     l1325:
  2146  009F  0843               	movf	___flmul@temp+1,w
  2147  00A0  00B2               	movwf	??___flmul
  2148  00A1  01B3               	clrf	??___flmul+1
  2149  00A2  01B4               	clrf	??___flmul+2
  2150  00A3  01B5               	clrf	??___flmul+3
  2151  00A4  0835               	movf	??___flmul+3,w
  2152  00A5  00C1               	movwf	___flmul@prod+3
  2153  00A6  0834               	movf	??___flmul+2,w
  2154  00A7  00C0               	movwf	___flmul@prod+2
  2155  00A8  0833               	movf	??___flmul+1,w
  2156  00A9  00BF               	movwf	___flmul@prod+1
  2157  00AA  0832               	movf	??___flmul,w
  2158  00AB  00BE               	movwf	___flmul@prod
  2159  00AC  082B               	movf	___flmul@b+1,w
  2160  00AD  00B2               	movwf	??___flmul
  2161  00AE  0832               	movf	??___flmul,w
  2162  00AF  00F3               	movwf	__Umul8_16@multiplicand
  2163  00B0  082F               	movf	___flmul@a+1,w
  2164  00B1  120A  118A  2698  120A  118A  	fcall	__Umul8_16
  2165  00B6  0874               	movf	?__Umul8_16+1,w
  2166  00B7  1283               	bcf	3,5	;RP0=0, select bank0
  2167  00B8  1303               	bcf	3,6	;RP1=0, select bank0
  2168  00B9  00C3               	movwf	___flmul@temp+1
  2169  00BA  0873               	movf	?__Umul8_16,w
  2170  00BB  00C2               	movwf	___flmul@temp
  2171  00BC                     l1327:
  2172  00BC  0842               	movf	___flmul@temp,w
  2173  00BD  00B2               	movwf	??___flmul
  2174  00BE  01B3               	clrf	??___flmul+1
  2175  00BF  01B4               	clrf	??___flmul+2
  2176  00C0  01B5               	clrf	??___flmul+3
  2177  00C1  0832               	movf	??___flmul,w
  2178  00C2  07B8               	addwf	___flmul@grs,f
  2179  00C3  0833               	movf	??___flmul+1,w
  2180  00C4  1103               	clrz
  2181  00C5  1803               	skipnc
  2182  00C6  3E01               	addlw	1
  2183  00C7  1903               	skipnz
  2184  00C8  28CA               	goto	u1171
  2185  00C9  07B9               	addwf	___flmul@grs+1,f
  2186  00CA                     u1171:
  2187  00CA  0834               	movf	??___flmul+2,w
  2188  00CB  1103               	clrz
  2189  00CC  1803               	skipnc
  2190  00CD  3E01               	addlw	1
  2191  00CE  1903               	skipnz
  2192  00CF  28D1               	goto	u1172
  2193  00D0  07BA               	addwf	___flmul@grs+2,f
  2194  00D1                     u1172:
  2195  00D1  0835               	movf	??___flmul+3,w
  2196  00D2  1103               	clrz
  2197  00D3  1803               	skipnc
  2198  00D4  3E01               	addlw	1
  2199  00D5  1903               	skipnz
  2200  00D6  28D8               	goto	u1173
  2201  00D7  07BB               	addwf	___flmul@grs+3,f
  2202  00D8                     u1173:
  2203  00D8                     l1329:
  2204  00D8  0843               	movf	___flmul@temp+1,w
  2205  00D9  00B2               	movwf	??___flmul
  2206  00DA  01B3               	clrf	??___flmul+1
  2207  00DB  01B4               	clrf	??___flmul+2
  2208  00DC  01B5               	clrf	??___flmul+3
  2209  00DD  0832               	movf	??___flmul,w
  2210  00DE  07BE               	addwf	___flmul@prod,f
  2211  00DF  0833               	movf	??___flmul+1,w
  2212  00E0  1103               	clrz
  2213  00E1  1803               	skipnc
  2214  00E2  3E01               	addlw	1
  2215  00E3  1903               	skipnz
  2216  00E4  28E6               	goto	u1181
  2217  00E5  07BF               	addwf	___flmul@prod+1,f
  2218  00E6                     u1181:
  2219  00E6  0834               	movf	??___flmul+2,w
  2220  00E7  1103               	clrz
  2221  00E8  1803               	skipnc
  2222  00E9  3E01               	addlw	1
  2223  00EA  1903               	skipnz
  2224  00EB  28ED               	goto	u1182
  2225  00EC  07C0               	addwf	___flmul@prod+2,f
  2226  00ED                     u1182:
  2227  00ED  0835               	movf	??___flmul+3,w
  2228  00EE  1103               	clrz
  2229  00EF  1803               	skipnc
  2230  00F0  3E01               	addlw	1
  2231  00F1  1903               	skipnz
  2232  00F2  28F4               	goto	u1183
  2233  00F3  07C1               	addwf	___flmul@prod+3,f
  2234  00F4                     u1183:
  2235  00F4  082C               	movf	___flmul@b+2,w
  2236  00F5  00B2               	movwf	??___flmul
  2237  00F6  0832               	movf	??___flmul,w
  2238  00F7  00F3               	movwf	__Umul8_16@multiplicand
  2239  00F8  082E               	movf	___flmul@a,w
  2240  00F9  120A  118A  2698  120A  118A  	fcall	__Umul8_16
  2241  00FE  0874               	movf	?__Umul8_16+1,w
  2242  00FF  1283               	bcf	3,5	;RP0=0, select bank0
  2243  0100  1303               	bcf	3,6	;RP1=0, select bank0
  2244  0101  00C3               	movwf	___flmul@temp+1
  2245  0102  0873               	movf	?__Umul8_16,w
  2246  0103  00C2               	movwf	___flmul@temp
  2247  0104                     l1331:
  2248  0104  0842               	movf	___flmul@temp,w
  2249  0105  00B2               	movwf	??___flmul
  2250  0106  01B3               	clrf	??___flmul+1
  2251  0107  01B4               	clrf	??___flmul+2
  2252  0108  01B5               	clrf	??___flmul+3
  2253  0109  0832               	movf	??___flmul,w
  2254  010A  07B8               	addwf	___flmul@grs,f
  2255  010B  0833               	movf	??___flmul+1,w
  2256  010C  1103               	clrz
  2257  010D  1803               	skipnc
  2258  010E  3E01               	addlw	1
  2259  010F  1903               	skipnz
  2260  0110  2912               	goto	u1191
  2261  0111  07B9               	addwf	___flmul@grs+1,f
  2262  0112                     u1191:
  2263  0112  0834               	movf	??___flmul+2,w
  2264  0113  1103               	clrz
  2265  0114  1803               	skipnc
  2266  0115  3E01               	addlw	1
  2267  0116  1903               	skipnz
  2268  0117  2919               	goto	u1192
  2269  0118  07BA               	addwf	___flmul@grs+2,f
  2270  0119                     u1192:
  2271  0119  0835               	movf	??___flmul+3,w
  2272  011A  1103               	clrz
  2273  011B  1803               	skipnc
  2274  011C  3E01               	addlw	1
  2275  011D  1903               	skipnz
  2276  011E  2920               	goto	u1193
  2277  011F  07BB               	addwf	___flmul@grs+3,f
  2278  0120                     u1193:
  2279  0120                     l1333:
  2280  0120  0843               	movf	___flmul@temp+1,w
  2281  0121  00B2               	movwf	??___flmul
  2282  0122  01B3               	clrf	??___flmul+1
  2283  0123  01B4               	clrf	??___flmul+2
  2284  0124  01B5               	clrf	??___flmul+3
  2285  0125  0832               	movf	??___flmul,w
  2286  0126  07BE               	addwf	___flmul@prod,f
  2287  0127  0833               	movf	??___flmul+1,w
  2288  0128  1103               	clrz
  2289  0129  1803               	skipnc
  2290  012A  3E01               	addlw	1
  2291  012B  1903               	skipnz
  2292  012C  292E               	goto	u1201
  2293  012D  07BF               	addwf	___flmul@prod+1,f
  2294  012E                     u1201:
  2295  012E  0834               	movf	??___flmul+2,w
  2296  012F  1103               	clrz
  2297  0130  1803               	skipnc
  2298  0131  3E01               	addlw	1
  2299  0132  1903               	skipnz
  2300  0133  2935               	goto	u1202
  2301  0134  07C0               	addwf	___flmul@prod+2,f
  2302  0135                     u1202:
  2303  0135  0835               	movf	??___flmul+3,w
  2304  0136  1103               	clrz
  2305  0137  1803               	skipnc
  2306  0138  3E01               	addlw	1
  2307  0139  1903               	skipnz
  2308  013A  293C               	goto	u1203
  2309  013B  07C1               	addwf	___flmul@prod+3,f
  2310  013C                     u1203:
  2311  013C                     l1335:
  2312  013C  3008               	movlw	8
  2313  013D  00B2               	movwf	??___flmul
  2314  013E                     u1215:
  2315  013E  1003               	clrc
  2316  013F  0DB8               	rlf	___flmul@grs,f
  2317  0140  0DB9               	rlf	___flmul@grs+1,f
  2318  0141  0DBA               	rlf	___flmul@grs+2,f
  2319  0142  0DBB               	rlf	___flmul@grs+3,f
  2320  0143  0BB2               	decfsz	??___flmul,f
  2321  0144  293E               	goto	u1215
  2322  0145                     l1337:
  2323  0145  082B               	movf	___flmul@b+1,w
  2324  0146  00B2               	movwf	??___flmul
  2325  0147  0832               	movf	??___flmul,w
  2326  0148  00F3               	movwf	__Umul8_16@multiplicand
  2327  0149  082E               	movf	___flmul@a,w
  2328  014A  120A  118A  2698  120A  118A  	fcall	__Umul8_16
  2329  014F  0874               	movf	?__Umul8_16+1,w
  2330  0150  1283               	bcf	3,5	;RP0=0, select bank0
  2331  0151  1303               	bcf	3,6	;RP1=0, select bank0
  2332  0152  00C3               	movwf	___flmul@temp+1
  2333  0153  0873               	movf	?__Umul8_16,w
  2334  0154  00C2               	movwf	___flmul@temp
  2335  0155                     l1339:
  2336  0155  0842               	movf	___flmul@temp,w
  2337  0156  00B2               	movwf	??___flmul
  2338  0157  0843               	movf	___flmul@temp+1,w
  2339  0158  00B3               	movwf	??___flmul+1
  2340  0159  01B4               	clrf	??___flmul+2
  2341  015A  01B5               	clrf	??___flmul+3
  2342  015B  0832               	movf	??___flmul,w
  2343  015C  07B8               	addwf	___flmul@grs,f
  2344  015D  0833               	movf	??___flmul+1,w
  2345  015E  1103               	clrz
  2346  015F  1803               	skipnc
  2347  0160  3E01               	addlw	1
  2348  0161  1903               	skipnz
  2349  0162  2964               	goto	u1221
  2350  0163  07B9               	addwf	___flmul@grs+1,f
  2351  0164                     u1221:
  2352  0164  0834               	movf	??___flmul+2,w
  2353  0165  1103               	clrz
  2354  0166  1803               	skipnc
  2355  0167  3E01               	addlw	1
  2356  0168  1903               	skipnz
  2357  0169  296B               	goto	u1222
  2358  016A  07BA               	addwf	___flmul@grs+2,f
  2359  016B                     u1222:
  2360  016B  0835               	movf	??___flmul+3,w
  2361  016C  1103               	clrz
  2362  016D  1803               	skipnc
  2363  016E  3E01               	addlw	1
  2364  016F  1903               	skipnz
  2365  0170  2972               	goto	u1223
  2366  0171  07BB               	addwf	___flmul@grs+3,f
  2367  0172                     u1223:
  2368  0172                     l1341:
  2369  0172  082A               	movf	___flmul@b,w
  2370  0173  00B2               	movwf	??___flmul
  2371  0174  0832               	movf	??___flmul,w
  2372  0175  00F3               	movwf	__Umul8_16@multiplicand
  2373  0176  082F               	movf	___flmul@a+1,w
  2374  0177  120A  118A  2698  120A  118A  	fcall	__Umul8_16
  2375  017C  0874               	movf	?__Umul8_16+1,w
  2376  017D  1283               	bcf	3,5	;RP0=0, select bank0
  2377  017E  1303               	bcf	3,6	;RP1=0, select bank0
  2378  017F  00C3               	movwf	___flmul@temp+1
  2379  0180  0873               	movf	?__Umul8_16,w
  2380  0181  00C2               	movwf	___flmul@temp
  2381  0182                     l1343:
  2382  0182  0842               	movf	___flmul@temp,w
  2383  0183  00B2               	movwf	??___flmul
  2384  0184  0843               	movf	___flmul@temp+1,w
  2385  0185  00B3               	movwf	??___flmul+1
  2386  0186  01B4               	clrf	??___flmul+2
  2387  0187  01B5               	clrf	??___flmul+3
  2388  0188  0832               	movf	??___flmul,w
  2389  0189  07B8               	addwf	___flmul@grs,f
  2390  018A  0833               	movf	??___flmul+1,w
  2391  018B  1103               	clrz
  2392  018C  1803               	skipnc
  2393  018D  3E01               	addlw	1
  2394  018E  1903               	skipnz
  2395  018F  2991               	goto	u1231
  2396  0190  07B9               	addwf	___flmul@grs+1,f
  2397  0191                     u1231:
  2398  0191  0834               	movf	??___flmul+2,w
  2399  0192  1103               	clrz
  2400  0193  1803               	skipnc
  2401  0194  3E01               	addlw	1
  2402  0195  1903               	skipnz
  2403  0196  2998               	goto	u1232
  2404  0197  07BA               	addwf	___flmul@grs+2,f
  2405  0198                     u1232:
  2406  0198  0835               	movf	??___flmul+3,w
  2407  0199  1103               	clrz
  2408  019A  1803               	skipnc
  2409  019B  3E01               	addlw	1
  2410  019C  1903               	skipnz
  2411  019D  299F               	goto	u1233
  2412  019E  07BB               	addwf	___flmul@grs+3,f
  2413  019F                     u1233:
  2414  019F                     l1345:
  2415  019F  3008               	movlw	8
  2416  01A0  00B2               	movwf	??___flmul
  2417  01A1                     u1245:
  2418  01A1  1003               	clrc
  2419  01A2  0DB8               	rlf	___flmul@grs,f
  2420  01A3  0DB9               	rlf	___flmul@grs+1,f
  2421  01A4  0DBA               	rlf	___flmul@grs+2,f
  2422  01A5  0DBB               	rlf	___flmul@grs+3,f
  2423  01A6  0BB2               	decfsz	??___flmul,f
  2424  01A7  29A1               	goto	u1245
  2425  01A8  082A               	movf	___flmul@b,w
  2426  01A9  00B2               	movwf	??___flmul
  2427  01AA  0832               	movf	??___flmul,w
  2428  01AB  00F3               	movwf	__Umul8_16@multiplicand
  2429  01AC  082E               	movf	___flmul@a,w
  2430  01AD  120A  118A  2698  120A  118A  	fcall	__Umul8_16
  2431  01B2  0874               	movf	?__Umul8_16+1,w
  2432  01B3  1283               	bcf	3,5	;RP0=0, select bank0
  2433  01B4  1303               	bcf	3,6	;RP1=0, select bank0
  2434  01B5  00C3               	movwf	___flmul@temp+1
  2435  01B6  0873               	movf	?__Umul8_16,w
  2436  01B7  00C2               	movwf	___flmul@temp
  2437  01B8                     l1347:
  2438  01B8  0842               	movf	___flmul@temp,w
  2439  01B9  00B2               	movwf	??___flmul
  2440  01BA  0843               	movf	___flmul@temp+1,w
  2441  01BB  00B3               	movwf	??___flmul+1
  2442  01BC  01B4               	clrf	??___flmul+2
  2443  01BD  01B5               	clrf	??___flmul+3
  2444  01BE  0832               	movf	??___flmul,w
  2445  01BF  07B8               	addwf	___flmul@grs,f
  2446  01C0  0833               	movf	??___flmul+1,w
  2447  01C1  1103               	clrz
  2448  01C2  1803               	skipnc
  2449  01C3  3E01               	addlw	1
  2450  01C4  1903               	skipnz
  2451  01C5  29C7               	goto	u1251
  2452  01C6  07B9               	addwf	___flmul@grs+1,f
  2453  01C7                     u1251:
  2454  01C7  0834               	movf	??___flmul+2,w
  2455  01C8  1103               	clrz
  2456  01C9  1803               	skipnc
  2457  01CA  3E01               	addlw	1
  2458  01CB  1903               	skipnz
  2459  01CC  29CE               	goto	u1252
  2460  01CD  07BA               	addwf	___flmul@grs+2,f
  2461  01CE                     u1252:
  2462  01CE  0835               	movf	??___flmul+3,w
  2463  01CF  1103               	clrz
  2464  01D0  1803               	skipnc
  2465  01D1  3E01               	addlw	1
  2466  01D2  1903               	skipnz
  2467  01D3  29D5               	goto	u1253
  2468  01D4  07BB               	addwf	___flmul@grs+3,f
  2469  01D5                     u1253:
  2470  01D5                     l1349:
  2471  01D5  082B               	movf	___flmul@b+1,w
  2472  01D6  00B2               	movwf	??___flmul
  2473  01D7  0832               	movf	??___flmul,w
  2474  01D8  00F3               	movwf	__Umul8_16@multiplicand
  2475  01D9  0830               	movf	___flmul@a+2,w
  2476  01DA  120A  118A  2698  120A  118A  	fcall	__Umul8_16
  2477  01DF  0874               	movf	?__Umul8_16+1,w
  2478  01E0  1283               	bcf	3,5	;RP0=0, select bank0
  2479  01E1  1303               	bcf	3,6	;RP1=0, select bank0
  2480  01E2  00C3               	movwf	___flmul@temp+1
  2481  01E3  0873               	movf	?__Umul8_16,w
  2482  01E4  00C2               	movwf	___flmul@temp
  2483  01E5  0842               	movf	___flmul@temp,w
  2484  01E6  00B2               	movwf	??___flmul
  2485  01E7  0843               	movf	___flmul@temp+1,w
  2486  01E8  00B3               	movwf	??___flmul+1
  2487  01E9  01B4               	clrf	??___flmul+2
  2488  01EA  01B5               	clrf	??___flmul+3
  2489  01EB  0832               	movf	??___flmul,w
  2490  01EC  07BE               	addwf	___flmul@prod,f
  2491  01ED  0833               	movf	??___flmul+1,w
  2492  01EE  1103               	clrz
  2493  01EF  1803               	skipnc
  2494  01F0  3E01               	addlw	1
  2495  01F1  1903               	skipnz
  2496  01F2  29F4               	goto	u1261
  2497  01F3  07BF               	addwf	___flmul@prod+1,f
  2498  01F4                     u1261:
  2499  01F4  0834               	movf	??___flmul+2,w
  2500  01F5  1103               	clrz
  2501  01F6  1803               	skipnc
  2502  01F7  3E01               	addlw	1
  2503  01F8  1903               	skipnz
  2504  01F9  29FB               	goto	u1262
  2505  01FA  07C0               	addwf	___flmul@prod+2,f
  2506  01FB                     u1262:
  2507  01FB  0835               	movf	??___flmul+3,w
  2508  01FC  1103               	clrz
  2509  01FD  1803               	skipnc
  2510  01FE  3E01               	addlw	1
  2511  01FF  1903               	skipnz
  2512  0200  2A02               	goto	u1263
  2513  0201  07C1               	addwf	___flmul@prod+3,f
  2514  0202                     u1263:
  2515  0202                     l1351:
  2516  0202  082C               	movf	___flmul@b+2,w
  2517  0203  00B2               	movwf	??___flmul
  2518  0204  0832               	movf	??___flmul,w
  2519  0205  00F3               	movwf	__Umul8_16@multiplicand
  2520  0206  082F               	movf	___flmul@a+1,w
  2521  0207  120A  118A  2698  120A  118A  	fcall	__Umul8_16
  2522  020C  0874               	movf	?__Umul8_16+1,w
  2523  020D  1283               	bcf	3,5	;RP0=0, select bank0
  2524  020E  1303               	bcf	3,6	;RP1=0, select bank0
  2525  020F  00C3               	movwf	___flmul@temp+1
  2526  0210  0873               	movf	?__Umul8_16,w
  2527  0211  00C2               	movwf	___flmul@temp
  2528  0212                     l1353:
  2529  0212  0842               	movf	___flmul@temp,w
  2530  0213  00B2               	movwf	??___flmul
  2531  0214  0843               	movf	___flmul@temp+1,w
  2532  0215  00B3               	movwf	??___flmul+1
  2533  0216  01B4               	clrf	??___flmul+2
  2534  0217  01B5               	clrf	??___flmul+3
  2535  0218  0832               	movf	??___flmul,w
  2536  0219  07BE               	addwf	___flmul@prod,f
  2537  021A  0833               	movf	??___flmul+1,w
  2538  021B  1103               	clrz
  2539  021C  1803               	skipnc
  2540  021D  3E01               	addlw	1
  2541  021E  1903               	skipnz
  2542  021F  2A21               	goto	u1271
  2543  0220  07BF               	addwf	___flmul@prod+1,f
  2544  0221                     u1271:
  2545  0221  0834               	movf	??___flmul+2,w
  2546  0222  1103               	clrz
  2547  0223  1803               	skipnc
  2548  0224  3E01               	addlw	1
  2549  0225  1903               	skipnz
  2550  0226  2A28               	goto	u1272
  2551  0227  07C0               	addwf	___flmul@prod+2,f
  2552  0228                     u1272:
  2553  0228  0835               	movf	??___flmul+3,w
  2554  0229  1103               	clrz
  2555  022A  1803               	skipnc
  2556  022B  3E01               	addlw	1
  2557  022C  1903               	skipnz
  2558  022D  2A2F               	goto	u1273
  2559  022E  07C1               	addwf	___flmul@prod+3,f
  2560  022F                     u1273:
  2561  022F  082C               	movf	___flmul@b+2,w
  2562  0230  00B2               	movwf	??___flmul
  2563  0231  0832               	movf	??___flmul,w
  2564  0232  00F3               	movwf	__Umul8_16@multiplicand
  2565  0233  0830               	movf	___flmul@a+2,w
  2566  0234  120A  118A  2698  120A  118A  	fcall	__Umul8_16
  2567  0239  0874               	movf	?__Umul8_16+1,w
  2568  023A  1283               	bcf	3,5	;RP0=0, select bank0
  2569  023B  1303               	bcf	3,6	;RP1=0, select bank0
  2570  023C  00C3               	movwf	___flmul@temp+1
  2571  023D  0873               	movf	?__Umul8_16,w
  2572  023E  00C2               	movwf	___flmul@temp
  2573  023F                     l1355:
  2574  023F  0842               	movf	___flmul@temp,w
  2575  0240  00B2               	movwf	??___flmul
  2576  0241  0843               	movf	___flmul@temp+1,w
  2577  0242  00B3               	movwf	??___flmul+1
  2578  0243  01B4               	clrf	??___flmul+2
  2579  0244  01B5               	clrf	??___flmul+3
  2580  0245  3008               	movlw	8
  2581  0246                     u1285:
  2582  0246  1003               	clrc
  2583  0247  0DB2               	rlf	??___flmul,f
  2584  0248  0DB3               	rlf	??___flmul+1,f
  2585  0249  0DB4               	rlf	??___flmul+2,f
  2586  024A  0DB5               	rlf	??___flmul+3,f
  2587  024B                     u1280:
  2588  024B  3EFF               	addlw	-1
  2589  024C  1D03               	skipz
  2590  024D  2A46               	goto	u1285
  2591  024E  0832               	movf	??___flmul,w
  2592  024F  07BE               	addwf	___flmul@prod,f
  2593  0250  0833               	movf	??___flmul+1,w
  2594  0251  1103               	clrz
  2595  0252  1803               	skipnc
  2596  0253  3E01               	addlw	1
  2597  0254  1903               	skipnz
  2598  0255  2A57               	goto	u1291
  2599  0256  07BF               	addwf	___flmul@prod+1,f
  2600  0257                     u1291:
  2601  0257  0834               	movf	??___flmul+2,w
  2602  0258  1103               	clrz
  2603  0259  1803               	skipnc
  2604  025A  3E01               	addlw	1
  2605  025B  1903               	skipnz
  2606  025C  2A5E               	goto	u1292
  2607  025D  07C0               	addwf	___flmul@prod+2,f
  2608  025E                     u1292:
  2609  025E  0835               	movf	??___flmul+3,w
  2610  025F  1103               	clrz
  2611  0260  1803               	skipnc
  2612  0261  3E01               	addlw	1
  2613  0262  1903               	skipnz
  2614  0263  2A65               	goto	u1293
  2615  0264  07C1               	addwf	___flmul@prod+3,f
  2616  0265                     u1293:
  2617  0265                     l1357:
  2618  0265  0838               	movf	___flmul@grs,w
  2619  0266  00B2               	movwf	??___flmul
  2620  0267  0839               	movf	___flmul@grs+1,w
  2621  0268  00B3               	movwf	??___flmul+1
  2622  0269  083A               	movf	___flmul@grs+2,w
  2623  026A  00B4               	movwf	??___flmul+2
  2624  026B  083B               	movf	___flmul@grs+3,w
  2625  026C  00B5               	movwf	??___flmul+3
  2626  026D  3018               	movlw	24
  2627  026E                     u1305:
  2628  026E  1003               	clrc
  2629  026F  0CB5               	rrf	??___flmul+3,f
  2630  0270  0CB4               	rrf	??___flmul+2,f
  2631  0271  0CB3               	rrf	??___flmul+1,f
  2632  0272  0CB2               	rrf	??___flmul,f
  2633  0273                     u1300:
  2634  0273  3EFF               	addlw	-1
  2635  0274  1D03               	skipz
  2636  0275  2A6E               	goto	u1305
  2637  0276  0832               	movf	??___flmul,w
  2638  0277  07BE               	addwf	___flmul@prod,f
  2639  0278  0833               	movf	??___flmul+1,w
  2640  0279  1103               	clrz
  2641  027A  1803               	skipnc
  2642  027B  3E01               	addlw	1
  2643  027C  1903               	skipnz
  2644  027D  2A7F               	goto	u1311
  2645  027E  07BF               	addwf	___flmul@prod+1,f
  2646  027F                     u1311:
  2647  027F  0834               	movf	??___flmul+2,w
  2648  0280  1103               	clrz
  2649  0281  1803               	skipnc
  2650  0282  3E01               	addlw	1
  2651  0283  1903               	skipnz
  2652  0284  2A86               	goto	u1312
  2653  0285  07C0               	addwf	___flmul@prod+2,f
  2654  0286                     u1312:
  2655  0286  0835               	movf	??___flmul+3,w
  2656  0287  1103               	clrz
  2657  0288  1803               	skipnc
  2658  0289  3E01               	addlw	1
  2659  028A  1903               	skipnz
  2660  028B  2A8D               	goto	u1313
  2661  028C  07C1               	addwf	___flmul@prod+3,f
  2662  028D                     u1313:
  2663  028D                     l1359:
  2664  028D  3008               	movlw	8
  2665  028E  00B2               	movwf	??___flmul
  2666  028F                     u1325:
  2667  028F  1003               	clrc
  2668  0290  0DB8               	rlf	___flmul@grs,f
  2669  0291  0DB9               	rlf	___flmul@grs+1,f
  2670  0292  0DBA               	rlf	___flmul@grs+2,f
  2671  0293  0DBB               	rlf	___flmul@grs+3,f
  2672  0294  0BB2               	decfsz	??___flmul,f
  2673  0295  2A8F               	goto	u1325
  2674  0296                     l1361:
  2675  0296  083D               	movf	___flmul@bexp,w
  2676  0297  073C               	addwf	___flmul@aexp,w
  2677  0298  00B2               	movwf	??___flmul
  2678  0299  01B3               	clrf	??___flmul+1
  2679  029A  0DB3               	rlf	??___flmul+1,f
  2680  029B  0832               	movf	??___flmul,w
  2681  029C  3E82               	addlw	130
  2682  029D  00C2               	movwf	___flmul@temp
  2683  029E  0833               	movf	??___flmul+1,w
  2684  029F  1803               	skipnc
  2685  02A0  3E01               	addlw	1
  2686  02A1  3EFF               	addlw	255
  2687  02A2  00C3               	movwf	___flmul@temp+1
  2688  02A3  2AC1               	goto	l1373
  2689  02A4                     l1363:
  2690  02A4  3001               	movlw	1
  2691  02A5  00B2               	movwf	??___flmul
  2692  02A6                     u1335:
  2693  02A6  1003               	clrc
  2694  02A7  0DBE               	rlf	___flmul@prod,f
  2695  02A8  0DBF               	rlf	___flmul@prod+1,f
  2696  02A9  0DC0               	rlf	___flmul@prod+2,f
  2697  02AA  0DC1               	rlf	___flmul@prod+3,f
  2698  02AB  0BB2               	decfsz	??___flmul,f
  2699  02AC  2AA6               	goto	u1335
  2700  02AD                     l1365:
  2701  02AD  1FBB               	btfss	___flmul@grs+3,7
  2702  02AE  2AB0               	goto	u1341
  2703  02AF  2AB1               	goto	u1340
  2704  02B0                     u1341:
  2705  02B0  2AB2               	goto	l1369
  2706  02B1                     u1340:
  2707  02B1                     l1367:
  2708  02B1  143E               	bsf	___flmul@prod,0
  2709  02B2                     l1369:
  2710  02B2  3001               	movlw	1
  2711  02B3  00B2               	movwf	??___flmul
  2712  02B4                     u1355:
  2713  02B4  1003               	clrc
  2714  02B5  0DB8               	rlf	___flmul@grs,f
  2715  02B6  0DB9               	rlf	___flmul@grs+1,f
  2716  02B7  0DBA               	rlf	___flmul@grs+2,f
  2717  02B8  0DBB               	rlf	___flmul@grs+3,f
  2718  02B9  0BB2               	decfsz	??___flmul,f
  2719  02BA  2AB4               	goto	u1355
  2720  02BB                     l1371:
  2721  02BB  30FF               	movlw	255
  2722  02BC  07C2               	addwf	___flmul@temp,f
  2723  02BD  1803               	skipnc
  2724  02BE  0AC3               	incf	___flmul@temp+1,f
  2725  02BF  30FF               	movlw	255
  2726  02C0  07C3               	addwf	___flmul@temp+1,f
  2727  02C1                     l1373:
  2728  02C1  1FC0               	btfss	___flmul@prod+2,7
  2729  02C2  2AC4               	goto	u1361
  2730  02C3  2AC5               	goto	u1360
  2731  02C4                     u1361:
  2732  02C4  2AA4               	goto	l1363
  2733  02C5                     u1360:
  2734  02C5                     l1375:
  2735  02C5  01BC               	clrf	___flmul@aexp
  2736  02C6                     l1377:
  2737  02C6  1FBB               	btfss	___flmul@grs+3,7
  2738  02C7  2AC9               	goto	u1371
  2739  02C8  2ACA               	goto	u1370
  2740  02C9                     u1371:
  2741  02C9  2AE6               	goto	l1385
  2742  02CA                     u1370:
  2743  02CA                     l1379:
  2744  02CA  30FF               	movlw	255
  2745  02CB  0538               	andwf	___flmul@grs,w
  2746  02CC  00B2               	movwf	??___flmul
  2747  02CD  30FF               	movlw	255
  2748  02CE  0539               	andwf	___flmul@grs+1,w
  2749  02CF  00B3               	movwf	??___flmul+1
  2750  02D0  30FF               	movlw	255
  2751  02D1  053A               	andwf	___flmul@grs+2,w
  2752  02D2  00B4               	movwf	??___flmul+2
  2753  02D3  307F               	movlw	127
  2754  02D4  053B               	andwf	___flmul@grs+3,w
  2755  02D5  00B5               	movwf	??___flmul+3
  2756  02D6  0835               	movf	??___flmul+3,w
  2757  02D7  0434               	iorwf	??___flmul+2,w
  2758  02D8  0433               	iorwf	??___flmul+1,w
  2759  02D9  0432               	iorwf	??___flmul,w
  2760  02DA  1903               	skipnz
  2761  02DB  2ADD               	goto	u1381
  2762  02DC  2ADE               	goto	u1380
  2763  02DD                     u1381:
  2764  02DD  2AE1               	goto	l614
  2765  02DE                     u1380:
  2766  02DE                     l1381:
  2767  02DE  01BC               	clrf	___flmul@aexp
  2768  02DF  0ABC               	incf	___flmul@aexp,f
  2769  02E0  2AE6               	goto	l1385
  2770  02E1                     l614:
  2771  02E1  1C3E               	btfss	___flmul@prod,0
  2772  02E2  2AE4               	goto	u1391
  2773  02E3  2AE5               	goto	u1390
  2774  02E4                     u1391:
  2775  02E4  2AE6               	goto	l1385
  2776  02E5                     u1390:
  2777  02E5  2ADE               	goto	l1381
  2778  02E6                     l1385:
  2779  02E6  083C               	movf	___flmul@aexp,w
  2780  02E7  1903               	btfsc	3,2
  2781  02E8  2AEA               	goto	u1401
  2782  02E9  2AEB               	goto	u1400
  2783  02EA                     u1401:
  2784  02EA  2B1C               	goto	l1395
  2785  02EB                     u1400:
  2786  02EB                     l1387:
  2787  02EB  3001               	movlw	1
  2788  02EC  07BE               	addwf	___flmul@prod,f
  2789  02ED  3000               	movlw	0
  2790  02EE  1803               	skipnc
  2791  02EF  3001               	movlw	1
  2792  02F0  07BF               	addwf	___flmul@prod+1,f
  2793  02F1  3000               	movlw	0
  2794  02F2  1803               	skipnc
  2795  02F3  3001               	movlw	1
  2796  02F4  07C0               	addwf	___flmul@prod+2,f
  2797  02F5  3000               	movlw	0
  2798  02F6  1803               	skipnc
  2799  02F7  3001               	movlw	1
  2800  02F8  07C1               	addwf	___flmul@prod+3,f
  2801  02F9                     l1389:
  2802  02F9  1C41               	btfss	___flmul@prod+3,0
  2803  02FA  2AFC               	goto	u1411
  2804  02FB  2AFD               	goto	u1410
  2805  02FC                     u1411:
  2806  02FC  2B1C               	goto	l1395
  2807  02FD                     u1410:
  2808  02FD                     l1391:
  2809  02FD  083E               	movf	___flmul@prod,w
  2810  02FE  00B2               	movwf	??___flmul
  2811  02FF  083F               	movf	___flmul@prod+1,w
  2812  0300  00B3               	movwf	??___flmul+1
  2813  0301  0840               	movf	___flmul@prod+2,w
  2814  0302  00B4               	movwf	??___flmul+2
  2815  0303  0841               	movf	___flmul@prod+3,w
  2816  0304  00B5               	movwf	??___flmul+3
  2817  0305  3001               	movlw	1
  2818  0306  00B6               	movwf	??___flmul+4
  2819  0307                     u1425:
  2820  0307  0D35               	rlf	??___flmul+3,w
  2821  0308  0CB5               	rrf	??___flmul+3,f
  2822  0309  0CB4               	rrf	??___flmul+2,f
  2823  030A  0CB3               	rrf	??___flmul+1,f
  2824  030B  0CB2               	rrf	??___flmul,f
  2825  030C                     u1420:
  2826  030C  0BB6               	decfsz	??___flmul+4,f
  2827  030D  2B07               	goto	u1425
  2828  030E  0835               	movf	??___flmul+3,w
  2829  030F  00C1               	movwf	___flmul@prod+3
  2830  0310  0834               	movf	??___flmul+2,w
  2831  0311  00C0               	movwf	___flmul@prod+2
  2832  0312  0833               	movf	??___flmul+1,w
  2833  0313  00BF               	movwf	___flmul@prod+1
  2834  0314  0832               	movf	??___flmul,w
  2835  0315  00BE               	movwf	___flmul@prod
  2836  0316                     l1393:
  2837  0316  3001               	movlw	1
  2838  0317  07C2               	addwf	___flmul@temp,f
  2839  0318  1803               	skipnc
  2840  0319  0AC3               	incf	___flmul@temp+1,f
  2841  031A  3000               	movlw	0
  2842  031B  07C3               	addwf	___flmul@temp+1,f
  2843  031C                     l1395:
  2844  031C  0843               	movf	___flmul@temp+1,w
  2845  031D  3A80               	xorlw	128
  2846  031E  00FF               	movwf	btemp+1
  2847  031F  3080               	movlw	128
  2848  0320  027F               	subwf	btemp+1,w
  2849  0321  1D03               	skipz
  2850  0322  2B25               	goto	u1435
  2851  0323  30FF               	movlw	255
  2852  0324  0242               	subwf	___flmul@temp,w
  2853  0325                     u1435:
  2854  0325  1C03               	skipc
  2855  0326  2B28               	goto	u1431
  2856  0327  2B29               	goto	u1430
  2857  0328                     u1431:
  2858  0328  2B34               	goto	l1399
  2859  0329                     u1430:
  2860  0329                     l1397:
  2861  0329  307F               	movlw	127
  2862  032A  1283               	bcf	3,5	;RP0=0, select bank0
  2863  032B  1303               	bcf	3,6	;RP1=0, select bank0
  2864  032C  00C1               	movwf	___flmul@prod+3
  2865  032D  3080               	movlw	128
  2866  032E  00C0               	movwf	___flmul@prod+2
  2867  032F  3000               	movlw	0
  2868  0330  00BF               	movwf	___flmul@prod+1
  2869  0331  3000               	movlw	0
  2870  0332  00BE               	movwf	___flmul@prod
  2871  0333  2B69               	goto	l620
  2872  0334                     l1399:
  2873  0334  1283               	bcf	3,5	;RP0=0, select bank0
  2874  0335  1303               	bcf	3,6	;RP1=0, select bank0
  2875  0336  0843               	movf	___flmul@temp+1,w
  2876  0337  3A80               	xorlw	128
  2877  0338  00FF               	movwf	btemp+1
  2878  0339  3080               	movlw	128
  2879  033A  027F               	subwf	btemp+1,w
  2880  033B  1D03               	skipz
  2881  033C  2B3F               	goto	u1445
  2882  033D  3001               	movlw	1
  2883  033E  0242               	subwf	___flmul@temp,w
  2884  033F                     u1445:
  2885  033F  1803               	skipnc
  2886  0340  2B42               	goto	u1441
  2887  0341  2B43               	goto	u1440
  2888  0342                     u1441:
  2889  0342  2B4F               	goto	l1405
  2890  0343                     u1440:
  2891  0343                     l1401:
  2892  0343  3000               	movlw	0
  2893  0344  1283               	bcf	3,5	;RP0=0, select bank0
  2894  0345  1303               	bcf	3,6	;RP1=0, select bank0
  2895  0346  00C1               	movwf	___flmul@prod+3
  2896  0347  3000               	movlw	0
  2897  0348  00C0               	movwf	___flmul@prod+2
  2898  0349  3000               	movlw	0
  2899  034A  00BF               	movwf	___flmul@prod+1
  2900  034B  3000               	movlw	0
  2901  034C  00BE               	movwf	___flmul@prod
  2902  034D                     l1403:
  2903  034D  01B7               	clrf	___flmul@sign
  2904  034E  2B69               	goto	l620
  2905  034F                     l1405:
  2906  034F  1283               	bcf	3,5	;RP0=0, select bank0
  2907  0350  1303               	bcf	3,6	;RP1=0, select bank0
  2908  0351  0842               	movf	___flmul@temp,w
  2909  0352  00B2               	movwf	??___flmul
  2910  0353  0832               	movf	??___flmul,w
  2911  0354  00BD               	movwf	___flmul@bexp
  2912  0355  30FF               	movlw	255
  2913  0356  05BE               	andwf	___flmul@prod,f
  2914  0357  30FF               	movlw	255
  2915  0358  05BF               	andwf	___flmul@prod+1,f
  2916  0359  307F               	movlw	127
  2917  035A  05C0               	andwf	___flmul@prod+2,f
  2918  035B  3000               	movlw	0
  2919  035C  05C1               	andwf	___flmul@prod+3,f
  2920  035D                     l1407:
  2921  035D  1C3D               	btfss	___flmul@bexp,0
  2922  035E  2B60               	goto	u1451
  2923  035F  2B61               	goto	u1450
  2924  0360                     u1451:
  2925  0360  2B62               	goto	l1411
  2926  0361                     u1450:
  2927  0361                     l1409:
  2928  0361  17C0               	bsf	___flmul@prod+2,7
  2929  0362                     l1411:
  2930  0362  083D               	movf	___flmul@bexp,w
  2931  0363  00B2               	movwf	??___flmul
  2932  0364  1003               	clrc
  2933  0365  0C32               	rrf	??___flmul,w
  2934  0366  00B3               	movwf	??___flmul+1
  2935  0367  0833               	movf	??___flmul+1,w
  2936  0368  00C1               	movwf	___flmul@prod+3
  2937  0369                     l620:
  2938  0369  0837               	movf	___flmul@sign,w
  2939  036A  00B2               	movwf	??___flmul
  2940  036B  0832               	movf	??___flmul,w
  2941  036C  04C1               	iorwf	___flmul@prod+3,f
  2942  036D                     l1413:
  2943  036D  0841               	movf	___flmul@prod+3,w
  2944  036E  00AD               	movwf	?___flmul+3
  2945  036F  0840               	movf	___flmul@prod+2,w
  2946  0370  00AC               	movwf	?___flmul+2
  2947  0371  083F               	movf	___flmul@prod+1,w
  2948  0372  00AB               	movwf	?___flmul+1
  2949  0373  083E               	movf	___flmul@prod,w
  2950  0374  00AA               	movwf	?___flmul
  2951  0375                     l608:
  2952  0375  0008               	return
  2953  0376                     __end_of___flmul:
  2954                           
  2955                           	psect	text8
  2956  0698                     __ptext8:	
  2957 ;; *************** function __Umul8_16 *****************
  2958 ;; Defined at:
  2959 ;;		line 4 in file "C:\Program Files\Microchip\xc8\v2.31\pic\sources\c90\common\Umul8_16.c"
  2960 ;; Parameters:    Size  Location     Type
  2961 ;;  multiplier      1    wreg     unsigned char 
  2962 ;;  multiplicand    1    3[COMMON] unsigned char 
  2963 ;; Auto vars:     Size  Location     Type
  2964 ;;  multiplier      1    4[BANK0 ] unsigned char 
  2965 ;;  word_mpld       2    2[BANK0 ] unsigned int 
  2966 ;;  product         2    0[BANK0 ] unsigned int 
  2967 ;; Return value:  Size  Location     Type
  2968 ;;                  2    3[COMMON] unsigned int 
  2969 ;; Registers used:
  2970 ;;		wreg, status,2, status,0
  2971 ;; Tracked objects:
  2972 ;;		On entry : 0/0
  2973 ;;		On exit  : 0/0
  2974 ;;		Unchanged: 0/0
  2975 ;; Data sizes:     COMMON   BANK0   BANK1   BANK3   BANK2
  2976 ;;      Params:         2       0       0       0       0
  2977 ;;      Locals:         0       5       0       0       0
  2978 ;;      Temps:          2       0       0       0       0
  2979 ;;      Totals:         4       5       0       0       0
  2980 ;;Total ram usage:        9 bytes
  2981 ;; Hardware stack levels used:    1
  2982 ;; Hardware stack levels required when called:    2
  2983 ;; This function calls:
  2984 ;;		Nothing
  2985 ;; This function is called by:
  2986 ;;		___flmul
  2987 ;; This function uses a non-reentrant model
  2988 ;;
  2989                           
  2990                           
  2991                           ;psect for function __Umul8_16
  2992  0698                     __Umul8_16:
  2993                           
  2994                           ;incstack = 0
  2995                           ; Regs used in __Umul8_16: [wreg+status,2+status,0]
  2996                           ;__Umul8_16@multiplier stored from wreg
  2997  0698  1283               	bcf	3,5	;RP0=0, select bank0
  2998  0699  1303               	bcf	3,6	;RP1=0, select bank0
  2999  069A  00A4               	movwf	__Umul8_16@multiplier
  3000  069B                     l1171:
  3001  069B  01A0               	clrf	__Umul8_16@product
  3002  069C  01A1               	clrf	__Umul8_16@product+1
  3003  069D                     l1173:
  3004  069D  0873               	movf	__Umul8_16@multiplicand,w
  3005  069E  00F5               	movwf	??__Umul8_16
  3006  069F  01F6               	clrf	??__Umul8_16+1
  3007  06A0  0875               	movf	??__Umul8_16,w
  3008  06A1  00A2               	movwf	__Umul8_16@word_mpld
  3009  06A2  0876               	movf	??__Umul8_16+1,w
  3010  06A3  00A3               	movwf	__Umul8_16@word_mpld+1
  3011  06A4                     l1175:
  3012  06A4  1C24               	btfss	__Umul8_16@multiplier,0
  3013  06A5  2EA7               	goto	u821
  3014  06A6  2EA8               	goto	u820
  3015  06A7                     u821:
  3016  06A7  2EAE               	goto	l627
  3017  06A8                     u820:
  3018  06A8                     l1177:
  3019  06A8  0822               	movf	__Umul8_16@word_mpld,w
  3020  06A9  07A0               	addwf	__Umul8_16@product,f
  3021  06AA  1803               	skipnc
  3022  06AB  0AA1               	incf	__Umul8_16@product+1,f
  3023  06AC  0823               	movf	__Umul8_16@word_mpld+1,w
  3024  06AD  07A1               	addwf	__Umul8_16@product+1,f
  3025  06AE                     l627:
  3026  06AE  3001               	movlw	1
  3027  06AF                     u835:
  3028  06AF  1003               	clrc
  3029  06B0  0DA2               	rlf	__Umul8_16@word_mpld,f
  3030  06B1  0DA3               	rlf	__Umul8_16@word_mpld+1,f
  3031  06B2  3EFF               	addlw	-1
  3032  06B3  1D03               	skipz
  3033  06B4  2EAF               	goto	u835
  3034  06B5  1003               	clrc
  3035  06B6  0CA4               	rrf	__Umul8_16@multiplier,f
  3036  06B7                     l1179:
  3037  06B7  0824               	movf	__Umul8_16@multiplier,w
  3038  06B8  1D03               	btfss	3,2
  3039  06B9  2EBB               	goto	u841
  3040  06BA  2EBC               	goto	u840
  3041  06BB                     u841:
  3042  06BB  2EA4               	goto	l1175
  3043  06BC                     u840:
  3044  06BC                     l1181:
  3045  06BC  0821               	movf	__Umul8_16@product+1,w
  3046  06BD  00F4               	movwf	?__Umul8_16+1
  3047  06BE  0820               	movf	__Umul8_16@product,w
  3048  06BF  00F3               	movwf	?__Umul8_16
  3049  06C0                     l629:
  3050  06C0  0008               	return
  3051  06C1                     __end_of__Umul8_16:
  3052                           
  3053                           	psect	text9
  3054  06E6                     __ptext9:	
  3055 ;; *************** function _Lcd_Write_String *****************
  3056 ;; Defined at:
  3057 ;;		line 54 in file "LCD8.c"
  3058 ;; Parameters:    Size  Location     Type
  3059 ;;  a               1    wreg     PTR unsigned char 
  3060 ;;		 -> STR_2(2), STR_1(15), 
  3061 ;; Auto vars:     Size  Location     Type
  3062 ;;  a               1    8[COMMON] PTR unsigned char 
  3063 ;;		 -> STR_2(2), STR_1(15), 
  3064 ;;  i               2    6[COMMON] int 
  3065 ;; Return value:  Size  Location     Type
  3066 ;;                  1    wreg      void 
  3067 ;; Registers used:
  3068 ;;		wreg, fsr0l, fsr0h, status,2, status,0, pclath, cstack
  3069 ;; Tracked objects:
  3070 ;;		On entry : 0/0
  3071 ;;		On exit  : 0/0
  3072 ;;		Unchanged: 0/0
  3073 ;; Data sizes:     COMMON   BANK0   BANK1   BANK3   BANK2
  3074 ;;      Params:         0       0       0       0       0
  3075 ;;      Locals:         3       0       0       0       0
  3076 ;;      Temps:          0       0       0       0       0
  3077 ;;      Totals:         3       0       0       0       0
  3078 ;;Total ram usage:        3 bytes
  3079 ;; Hardware stack levels used:    1
  3080 ;; Hardware stack levels required when called:    4
  3081 ;; This function calls:
  3082 ;;		_Lcd_Write_Char
  3083 ;; This function is called by:
  3084 ;;		_main
  3085 ;;		_WriteFloat
  3086 ;; This function uses a non-reentrant model
  3087 ;;
  3088                           
  3089                           
  3090                           ;psect for function _Lcd_Write_String
  3091  06E6                     _Lcd_Write_String:
  3092                           
  3093                           ;incstack = 0
  3094                           ; Regs used in _Lcd_Write_String: [wreg-fsr0h+status,2+status,0+pclath+cstack]
  3095                           ;Lcd_Write_String@a stored from wreg
  3096  06E6  00F8               	movwf	Lcd_Write_String@a
  3097  06E7                     l1193:
  3098                           
  3099                           ;LCD8.c: 55:     int i;;LCD8.c: 56:     for (i = 0; a[i] != '\0'; i++)
  3100  06E7  01F6               	clrf	Lcd_Write_String@i
  3101  06E8  01F7               	clrf	Lcd_Write_String@i+1
  3102  06E9  2EFD               	goto	l1199
  3103  06EA                     l1195:
  3104                           
  3105                           ;LCD8.c: 57:         Lcd_Write_Char(a[i]);
  3106  06EA  0876               	movf	Lcd_Write_String@i,w
  3107  06EB  0778               	addwf	Lcd_Write_String@a,w
  3108  06EC  0084               	movwf	4
  3109  06ED  120A  118A  277C  120A  118A  	fcall	stringdir
  3110  06F2  120A  118A  2793  120A  118A  	fcall	_Lcd_Write_Char
  3111  06F7                     l1197:
  3112  06F7  3001               	movlw	1
  3113  06F8  07F6               	addwf	Lcd_Write_String@i,f
  3114  06F9  1803               	skipnc
  3115  06FA  0AF7               	incf	Lcd_Write_String@i+1,f
  3116  06FB  3000               	movlw	0
  3117  06FC  07F7               	addwf	Lcd_Write_String@i+1,f
  3118  06FD                     l1199:
  3119  06FD  0876               	movf	Lcd_Write_String@i,w
  3120  06FE  0778               	addwf	Lcd_Write_String@a,w
  3121  06FF  0084               	movwf	4
  3122  0700  120A  118A  277C  120A  118A  	fcall	stringdir
  3123  0705  3A00               	xorlw	0
  3124  0706  1D03               	skipz
  3125  0707  2F09               	goto	u871
  3126  0708  2F0A               	goto	u870
  3127  0709                     u871:
  3128  0709  2EEA               	goto	l1195
  3129  070A                     u870:
  3130  070A                     l101:
  3131  070A  0008               	return
  3132  070B                     __end_of_Lcd_Write_String:
  3133                           
  3134                           	psect	text10
  3135  0793                     __ptext10:	
  3136 ;; *************** function _Lcd_Write_Char *****************
  3137 ;; Defined at:
  3138 ;;		line 46 in file "LCD8.c"
  3139 ;; Parameters:    Size  Location     Type
  3140 ;;  a               1    wreg     unsigned char 
  3141 ;; Auto vars:     Size  Location     Type
  3142 ;;  a               1    5[COMMON] unsigned char 
  3143 ;; Return value:  Size  Location     Type
  3144 ;;                  1    wreg      void 
  3145 ;; Registers used:
  3146 ;;		wreg, status,2, status,0, pclath, cstack
  3147 ;; Tracked objects:
  3148 ;;		On entry : 0/0
  3149 ;;		On exit  : 0/0
  3150 ;;		Unchanged: 0/0
  3151 ;; Data sizes:     COMMON   BANK0   BANK1   BANK3   BANK2
  3152 ;;      Params:         0       0       0       0       0
  3153 ;;      Locals:         1       0       0       0       0
  3154 ;;      Temps:          1       0       0       0       0
  3155 ;;      Totals:         2       0       0       0       0
  3156 ;;Total ram usage:        2 bytes
  3157 ;; Hardware stack levels used:    1
  3158 ;; Hardware stack levels required when called:    3
  3159 ;; This function calls:
  3160 ;;		_Lcd_Port
  3161 ;; This function is called by:
  3162 ;;		_WriteFloat
  3163 ;;		_Lcd_Write_String
  3164 ;; This function uses a non-reentrant model
  3165 ;;
  3166                           
  3167                           
  3168                           ;psect for function _Lcd_Write_Char
  3169  0793                     _Lcd_Write_Char:
  3170                           
  3171                           ;incstack = 0
  3172                           ; Regs used in _Lcd_Write_Char: [wreg+status,2+status,0+pclath+cstack]
  3173                           ;Lcd_Write_Char@a stored from wreg
  3174  0793  00F5               	movwf	Lcd_Write_Char@a
  3175  0794                     l1151:
  3176                           
  3177                           ;LCD8.c: 47:     RB0 = 1;
  3178  0794  1283               	bcf	3,5	;RP0=0, select bank0
  3179  0795  1303               	bcf	3,6	;RP1=0, select bank0
  3180  0796  1406               	bsf	6,0	;volatile
  3181  0797                     l1153:
  3182                           
  3183                           ;LCD8.c: 48:     Lcd_Port(a);
  3184  0797  0875               	movf	Lcd_Write_Char@a,w
  3185  0798  120A  118A  27C4  120A  118A  	fcall	_Lcd_Port
  3186  079D                     l1155:
  3187                           
  3188                           ;LCD8.c: 49:     RB1 = 1;
  3189  079D  1283               	bcf	3,5	;RP0=0, select bank0
  3190  079E  1303               	bcf	3,6	;RP1=0, select bank0
  3191  079F  1486               	bsf	6,1	;volatile
  3192  07A0                     l1157:
  3193                           
  3194                           ;LCD8.c: 50:     _delay((unsigned long)((40)*(8000000/4000000.0)));
  3195  07A0  301A               	movlw	26
  3196  07A1  00F4               	movwf	??_Lcd_Write_Char
  3197  07A2                     u1917:
  3198  07A2  0BF4               	decfsz	??_Lcd_Write_Char,f
  3199  07A3  2FA2               	goto	u1917
  3200  07A4  0000               	nop
  3201  07A5                     l1159:
  3202                           
  3203                           ;LCD8.c: 51:     RB1 = 0;
  3204  07A5  1283               	bcf	3,5	;RP0=0, select bank0
  3205  07A6  1303               	bcf	3,6	;RP1=0, select bank0
  3206  07A7  1086               	bcf	6,1	;volatile
  3207  07A8                     l95:
  3208  07A8  0008               	return
  3209  07A9                     __end_of_Lcd_Write_Char:
  3210                           
  3211                           	psect	text11
  3212  0746                     __ptext11:	
  3213 ;; *************** function _Lcd_Set_Cursor *****************
  3214 ;; Defined at:
  3215 ;;		line 21 in file "LCD8.c"
  3216 ;; Parameters:    Size  Location     Type
  3217 ;;  a               1    wreg     unsigned char 
  3218 ;;  b               1    7[COMMON] unsigned char 
  3219 ;; Auto vars:     Size  Location     Type
  3220 ;;  a               1    8[COMMON] unsigned char 
  3221 ;; Return value:  Size  Location     Type
  3222 ;;                  1    wreg      void 
  3223 ;; Registers used:
  3224 ;;		wreg, status,2, status,0, pclath, cstack
  3225 ;; Tracked objects:
  3226 ;;		On entry : 0/0
  3227 ;;		On exit  : 0/0
  3228 ;;		Unchanged: 0/0
  3229 ;; Data sizes:     COMMON   BANK0   BANK1   BANK3   BANK2
  3230 ;;      Params:         1       0       0       0       0
  3231 ;;      Locals:         1       0       0       0       0
  3232 ;;      Temps:          0       0       0       0       0
  3233 ;;      Totals:         2       0       0       0       0
  3234 ;;Total ram usage:        2 bytes
  3235 ;; Hardware stack levels used:    1
  3236 ;; Hardware stack levels required when called:    4
  3237 ;; This function calls:
  3238 ;;		_Lcd_Cmd
  3239 ;; This function is called by:
  3240 ;;		_main
  3241 ;;		_WriteFloat
  3242 ;; This function uses a non-reentrant model
  3243 ;;
  3244                           
  3245                           
  3246                           ;psect for function _Lcd_Set_Cursor
  3247  0746                     _Lcd_Set_Cursor:
  3248                           
  3249                           ;incstack = 0
  3250                           ; Regs used in _Lcd_Set_Cursor: [wreg+status,2+status,0+pclath+cstack]
  3251                           ;Lcd_Set_Cursor@a stored from wreg
  3252  0746  00F8               	movwf	Lcd_Set_Cursor@a
  3253  0747                     l1185:
  3254                           
  3255                           ;LCD8.c: 22:     if (a == 1) {
  3256  0747  0378               	decf	Lcd_Set_Cursor@a,w
  3257  0748  1D03               	btfss	3,2
  3258  0749  2F4B               	goto	u851
  3259  074A  2F4C               	goto	u850
  3260  074B                     u851:
  3261  074B  2F54               	goto	l1189
  3262  074C                     u850:
  3263  074C                     l1187:
  3264                           
  3265                           ;LCD8.c: 23:         Lcd_Cmd(0x80 + b - 1);
  3266  074C  0877               	movf	Lcd_Set_Cursor@b,w
  3267  074D  3E7F               	addlw	127
  3268  074E  120A  118A  2762  120A  118A  	fcall	_Lcd_Cmd
  3269                           
  3270                           ;LCD8.c: 24:     } else if (a == 2) {
  3271  0753  2F61               	goto	l89
  3272  0754                     l1189:
  3273  0754  3002               	movlw	2
  3274  0755  0678               	xorwf	Lcd_Set_Cursor@a,w
  3275  0756  1D03               	btfss	3,2
  3276  0757  2F59               	goto	u861
  3277  0758  2F5A               	goto	u860
  3278  0759                     u861:
  3279  0759  2F61               	goto	l89
  3280  075A                     u860:
  3281  075A                     l1191:
  3282                           
  3283                           ;LCD8.c: 25:         Lcd_Cmd(0xC0 + b - 1);
  3284  075A  0877               	movf	Lcd_Set_Cursor@b,w
  3285  075B  3EBF               	addlw	191
  3286  075C  120A  118A  2762  120A  118A  	fcall	_Lcd_Cmd
  3287  0761                     l89:
  3288  0761  0008               	return
  3289  0762                     __end_of_Lcd_Set_Cursor:
  3290                           
  3291                           	psect	text12
  3292  05AD                     __ptext12:	
  3293 ;; *************** function _Lcd_Init *****************
  3294 ;; Defined at:
  3295 ;;		line 29 in file "LCD8.c"
  3296 ;; Parameters:    Size  Location     Type
  3297 ;;		None
  3298 ;; Auto vars:     Size  Location     Type
  3299 ;;		None
  3300 ;; Return value:  Size  Location     Type
  3301 ;;                  1    wreg      void 
  3302 ;; Registers used:
  3303 ;;		wreg, status,2, status,0, pclath, cstack
  3304 ;; Tracked objects:
  3305 ;;		On entry : 0/0
  3306 ;;		On exit  : 0/0
  3307 ;;		Unchanged: 0/0
  3308 ;; Data sizes:     COMMON   BANK0   BANK1   BANK3   BANK2
  3309 ;;      Params:         0       0       0       0       0
  3310 ;;      Locals:         0       0       0       0       0
  3311 ;;      Temps:          2       0       0       0       0
  3312 ;;      Totals:         2       0       0       0       0
  3313 ;;Total ram usage:        2 bytes
  3314 ;; Hardware stack levels used:    1
  3315 ;; Hardware stack levels required when called:    4
  3316 ;; This function calls:
  3317 ;;		_Lcd_Cmd
  3318 ;;		_Lcd_Port
  3319 ;; This function is called by:
  3320 ;;		_main
  3321 ;; This function uses a non-reentrant model
  3322 ;;
  3323                           
  3324                           
  3325                           ;psect for function _Lcd_Init
  3326  05AD                     _Lcd_Init:
  3327  05AD                     l1475:	
  3328                           ;incstack = 0
  3329                           ; Regs used in _Lcd_Init: [wreg+status,2+status,0+pclath+cstack]
  3330                           
  3331                           
  3332                           ;LCD8.c: 30:     _delay((unsigned long)((15)*(8000000/4000.0)));
  3333  05AD  3027               	movlw	39
  3334  05AE  00F8               	movwf	??_Lcd_Init+1
  3335  05AF  30F5               	movlw	245
  3336  05B0  00F7               	movwf	??_Lcd_Init
  3337  05B1                     u1927:
  3338  05B1  0BF7               	decfsz	??_Lcd_Init,f
  3339  05B2  2DB1               	goto	u1927
  3340  05B3  0BF8               	decfsz	??_Lcd_Init+1,f
  3341  05B4  2DB1               	goto	u1927
  3342  05B5                     l1477:
  3343                           
  3344                           ;LCD8.c: 31:     Lcd_Port(0x00);
  3345  05B5  3000               	movlw	0
  3346  05B6  120A  118A  27C4  120A  118A  	fcall	_Lcd_Port
  3347  05BB                     l1479:
  3348                           
  3349                           ;LCD8.c: 32:     _delay((unsigned long)((20)*(8000000/4000.0)));
  3350  05BB  3034               	movlw	52
  3351  05BC  00F8               	movwf	??_Lcd_Init+1
  3352  05BD  30F1               	movlw	241
  3353  05BE  00F7               	movwf	??_Lcd_Init
  3354  05BF                     u1937:
  3355  05BF  0BF7               	decfsz	??_Lcd_Init,f
  3356  05C0  2DBF               	goto	u1937
  3357  05C1  0BF8               	decfsz	??_Lcd_Init+1,f
  3358  05C2  2DBF               	goto	u1937
  3359  05C3  2DC4               	nop2
  3360                           
  3361                           ;LCD8.c: 33:     Lcd_Cmd(0x30);
  3362  05C4  3030               	movlw	48
  3363  05C5  120A  118A  2762  120A  118A  	fcall	_Lcd_Cmd
  3364  05CA                     l1481:
  3365                           
  3366                           ;LCD8.c: 34:     _delay((unsigned long)((5)*(8000000/4000.0)));
  3367  05CA  300D               	movlw	13
  3368  05CB  00F8               	movwf	??_Lcd_Init+1
  3369  05CC  30FB               	movlw	251
  3370  05CD  00F7               	movwf	??_Lcd_Init
  3371  05CE                     u1947:
  3372  05CE  0BF7               	decfsz	??_Lcd_Init,f
  3373  05CF  2DCE               	goto	u1947
  3374  05D0  0BF8               	decfsz	??_Lcd_Init+1,f
  3375  05D1  2DCE               	goto	u1947
  3376  05D2  2DD3               	nop2
  3377  05D3                     l1483:
  3378                           
  3379                           ;LCD8.c: 35:     Lcd_Cmd(0x30);
  3380  05D3  3030               	movlw	48
  3381  05D4  120A  118A  2762  120A  118A  	fcall	_Lcd_Cmd
  3382                           
  3383                           ;LCD8.c: 36:     _delay((unsigned long)((160)*(8000000/4000000.0)));
  3384  05D9  306A               	movlw	106
  3385  05DA  00F7               	movwf	??_Lcd_Init
  3386  05DB                     u1957:
  3387  05DB  0BF7               	decfsz	??_Lcd_Init,f
  3388  05DC  2DDB               	goto	u1957
  3389  05DD  0000               	nop
  3390  05DE                     l1485:
  3391                           
  3392                           ;LCD8.c: 37:     Lcd_Cmd(0x30);
  3393  05DE  3030               	movlw	48
  3394  05DF  120A  118A  2762  120A  118A  	fcall	_Lcd_Cmd
  3395  05E4                     l1487:
  3396                           
  3397                           ;LCD8.c: 39:     Lcd_Cmd(0x38);
  3398  05E4  3038               	movlw	56
  3399  05E5  120A  118A  2762  120A  118A  	fcall	_Lcd_Cmd
  3400  05EA                     l1489:
  3401                           
  3402                           ;LCD8.c: 40:     Lcd_Cmd(0x10);
  3403  05EA  3010               	movlw	16
  3404  05EB  120A  118A  2762  120A  118A  	fcall	_Lcd_Cmd
  3405  05F0                     l1491:
  3406                           
  3407                           ;LCD8.c: 41:     Lcd_Cmd(0x01);
  3408  05F0  3001               	movlw	1
  3409  05F1  120A  118A  2762  120A  118A  	fcall	_Lcd_Cmd
  3410  05F6                     l1493:
  3411                           
  3412                           ;LCD8.c: 42:     Lcd_Cmd(0x06);
  3413  05F6  3006               	movlw	6
  3414  05F7  120A  118A  2762  120A  118A  	fcall	_Lcd_Cmd
  3415  05FC                     l1495:
  3416                           
  3417                           ;LCD8.c: 43:     Lcd_Cmd(0x0C);
  3418  05FC  300C               	movlw	12
  3419  05FD  120A  118A  2762  120A  118A  	fcall	_Lcd_Cmd
  3420  0602                     l92:
  3421  0602  0008               	return
  3422  0603                     __end_of_Lcd_Init:
  3423                           
  3424                           	psect	text13
  3425  07B7                     __ptext13:	
  3426 ;; *************** function _Lcd_Clear *****************
  3427 ;; Defined at:
  3428 ;;		line 16 in file "LCD8.c"
  3429 ;; Parameters:    Size  Location     Type
  3430 ;;		None
  3431 ;; Auto vars:     Size  Location     Type
  3432 ;;		None
  3433 ;; Return value:  Size  Location     Type
  3434 ;;                  1    wreg      void 
  3435 ;; Registers used:
  3436 ;;		wreg, status,2, status,0, pclath, cstack
  3437 ;; Tracked objects:
  3438 ;;		On entry : 0/0
  3439 ;;		On exit  : 0/0
  3440 ;;		Unchanged: 0/0
  3441 ;; Data sizes:     COMMON   BANK0   BANK1   BANK3   BANK2
  3442 ;;      Params:         0       0       0       0       0
  3443 ;;      Locals:         0       0       0       0       0
  3444 ;;      Temps:          0       0       0       0       0
  3445 ;;      Totals:         0       0       0       0       0
  3446 ;;Total ram usage:        0 bytes
  3447 ;; Hardware stack levels used:    1
  3448 ;; Hardware stack levels required when called:    4
  3449 ;; This function calls:
  3450 ;;		_Lcd_Cmd
  3451 ;; This function is called by:
  3452 ;;		_main
  3453 ;; This function uses a non-reentrant model
  3454 ;;
  3455                           
  3456                           
  3457                           ;psect for function _Lcd_Clear
  3458  07B7                     _Lcd_Clear:
  3459  07B7                     l1497:	
  3460                           ;incstack = 0
  3461                           ; Regs used in _Lcd_Clear: [wreg+status,2+status,0+pclath+cstack]
  3462                           
  3463                           
  3464                           ;LCD8.c: 17:     Lcd_Cmd(0);
  3465  07B7  3000               	movlw	0
  3466  07B8  120A  118A  2762  120A  118A  	fcall	_Lcd_Cmd
  3467                           
  3468                           ;LCD8.c: 18:     Lcd_Cmd(1);
  3469  07BD  3001               	movlw	1
  3470  07BE  120A  118A  2762  120A  118A  	fcall	_Lcd_Cmd
  3471  07C3                     l83:
  3472  07C3  0008               	return
  3473  07C4                     __end_of_Lcd_Clear:
  3474                           
  3475                           	psect	text14
  3476  0762                     __ptext14:	
  3477 ;; *************** function _Lcd_Cmd *****************
  3478 ;; Defined at:
  3479 ;;		line 8 in file "LCD8.c"
  3480 ;; Parameters:    Size  Location     Type
  3481 ;;  a               1    wreg     unsigned char 
  3482 ;; Auto vars:     Size  Location     Type
  3483 ;;  a               1    6[COMMON] unsigned char 
  3484 ;; Return value:  Size  Location     Type
  3485 ;;                  1    wreg      void 
  3486 ;; Registers used:
  3487 ;;		wreg, status,2, status,0, pclath, cstack
  3488 ;; Tracked objects:
  3489 ;;		On entry : 0/0
  3490 ;;		On exit  : 0/0
  3491 ;;		Unchanged: 0/0
  3492 ;; Data sizes:     COMMON   BANK0   BANK1   BANK3   BANK2
  3493 ;;      Params:         0       0       0       0       0
  3494 ;;      Locals:         1       0       0       0       0
  3495 ;;      Temps:          2       0       0       0       0
  3496 ;;      Totals:         3       0       0       0       0
  3497 ;;Total ram usage:        3 bytes
  3498 ;; Hardware stack levels used:    1
  3499 ;; Hardware stack levels required when called:    3
  3500 ;; This function calls:
  3501 ;;		_Lcd_Port
  3502 ;; This function is called by:
  3503 ;;		_Lcd_Clear
  3504 ;;		_Lcd_Set_Cursor
  3505 ;;		_Lcd_Init
  3506 ;;		_Lcd_Shift_Right
  3507 ;;		_Lcd_Shift_Left
  3508 ;; This function uses a non-reentrant model
  3509 ;;
  3510                           
  3511                           
  3512                           ;psect for function _Lcd_Cmd
  3513  0762                     _Lcd_Cmd:
  3514                           
  3515                           ;incstack = 0
  3516                           ; Regs used in _Lcd_Cmd: [wreg+status,2+status,0+pclath+cstack]
  3517                           ;Lcd_Cmd@a stored from wreg
  3518  0762  00F6               	movwf	Lcd_Cmd@a
  3519  0763                     l1161:
  3520                           
  3521                           ;LCD8.c: 9:     RB0 = 0;
  3522  0763  1283               	bcf	3,5	;RP0=0, select bank0
  3523  0764  1303               	bcf	3,6	;RP1=0, select bank0
  3524  0765  1006               	bcf	6,0	;volatile
  3525  0766                     l1163:
  3526                           
  3527                           ;LCD8.c: 10:     Lcd_Port(a);
  3528  0766  0876               	movf	Lcd_Cmd@a,w
  3529  0767  120A  118A  27C4  120A  118A  	fcall	_Lcd_Port
  3530  076C                     l1165:
  3531                           
  3532                           ;LCD8.c: 11:     RB1 = 1;
  3533  076C  1283               	bcf	3,5	;RP0=0, select bank0
  3534  076D  1303               	bcf	3,6	;RP1=0, select bank0
  3535  076E  1486               	bsf	6,1	;volatile
  3536  076F                     l1167:
  3537                           
  3538                           ;LCD8.c: 12:     _delay((unsigned long)((4)*(8000000/4000.0)));
  3539  076F  300B               	movlw	11
  3540  0770  00F5               	movwf	??_Lcd_Cmd+1
  3541  0771  3062               	movlw	98
  3542  0772  00F4               	movwf	??_Lcd_Cmd
  3543  0773                     u1967:
  3544  0773  0BF4               	decfsz	??_Lcd_Cmd,f
  3545  0774  2F73               	goto	u1967
  3546  0775  0BF5               	decfsz	??_Lcd_Cmd+1,f
  3547  0776  2F73               	goto	u1967
  3548  0777  0000               	nop
  3549  0778                     l1169:
  3550                           
  3551                           ;LCD8.c: 13:     RB1 = 0;
  3552  0778  1283               	bcf	3,5	;RP0=0, select bank0
  3553  0779  1303               	bcf	3,6	;RP1=0, select bank0
  3554  077A  1086               	bcf	6,1	;volatile
  3555  077B                     l80:
  3556  077B  0008               	return
  3557  077C                     __end_of_Lcd_Cmd:
  3558                           
  3559                           	psect	text15
  3560  07C4                     __ptext15:	
  3561 ;; *************** function _Lcd_Port *****************
  3562 ;; Defined at:
  3563 ;;		line 4 in file "LCD8.c"
  3564 ;; Parameters:    Size  Location     Type
  3565 ;;  a               1    wreg     unsigned char 
  3566 ;; Auto vars:     Size  Location     Type
  3567 ;;  a               1    3[COMMON] unsigned char 
  3568 ;; Return value:  Size  Location     Type
  3569 ;;                  1    wreg      void 
  3570 ;; Registers used:
  3571 ;;		wreg
  3572 ;; Tracked objects:
  3573 ;;		On entry : 0/0
  3574 ;;		On exit  : 0/0
  3575 ;;		Unchanged: 0/0
  3576 ;; Data sizes:     COMMON   BANK0   BANK1   BANK3   BANK2
  3577 ;;      Params:         0       0       0       0       0
  3578 ;;      Locals:         1       0       0       0       0
  3579 ;;      Temps:          0       0       0       0       0
  3580 ;;      Totals:         1       0       0       0       0
  3581 ;;Total ram usage:        1 bytes
  3582 ;; Hardware stack levels used:    1
  3583 ;; Hardware stack levels required when called:    2
  3584 ;; This function calls:
  3585 ;;		Nothing
  3586 ;; This function is called by:
  3587 ;;		_Lcd_Cmd
  3588 ;;		_Lcd_Init
  3589 ;;		_Lcd_Write_Char
  3590 ;; This function uses a non-reentrant model
  3591 ;;
  3592                           
  3593                           
  3594                           ;psect for function _Lcd_Port
  3595  07C4                     _Lcd_Port:
  3596                           
  3597                           ;incstack = 0
  3598                           ; Regs used in _Lcd_Port: [wreg]
  3599                           ;Lcd_Port@a stored from wreg
  3600  07C4  00F3               	movwf	Lcd_Port@a
  3601  07C5                     l1149:
  3602                           
  3603                           ;LCD8.c: 5:     PORTD = a;
  3604  07C5  0873               	movf	Lcd_Port@a,w
  3605  07C6  1283               	bcf	3,5	;RP0=0, select bank0
  3606  07C7  1303               	bcf	3,6	;RP1=0, select bank0
  3607  07C8  0088               	movwf	8	;volatile
  3608  07C9                     l77:
  3609  07C9  0008               	return
  3610  07CA                     __end_of_Lcd_Port:
  3611                           
  3612                           	psect	text16
  3613  0729                     __ptext16:	
  3614 ;; *************** function _oli *****************
  3615 ;; Defined at:
  3616 ;;		line 94 in file "Master.c"
  3617 ;; Parameters:    Size  Location     Type
  3618 ;;		None
  3619 ;; Auto vars:     Size  Location     Type
  3620 ;;		None
  3621 ;; Return value:  Size  Location     Type
  3622 ;;                  1    wreg      void 
  3623 ;; Registers used:
  3624 ;;		wreg, pclath, cstack
  3625 ;; Tracked objects:
  3626 ;;		On entry : 0/0
  3627 ;;		On exit  : 0/0
  3628 ;;		Unchanged: 0/0
  3629 ;; Data sizes:     COMMON   BANK0   BANK1   BANK3   BANK2
  3630 ;;      Params:         0       0       0       0       0
  3631 ;;      Locals:         0       0       0       0       0
  3632 ;;      Temps:          3       0       0       0       0
  3633 ;;      Totals:         3       0       0       0       0
  3634 ;;Total ram usage:        3 bytes
  3635 ;; Hardware stack levels used:    1
  3636 ;; Hardware stack levels required when called:    1
  3637 ;; This function calls:
  3638 ;;		_Receive
  3639 ;; This function is called by:
  3640 ;;		Interrupt level 1
  3641 ;; This function uses a non-reentrant model
  3642 ;;
  3643                           
  3644                           
  3645                           ;psect for function _oli
  3646  0729                     _oli:
  3647  0729                     i1l1127:
  3648  0729  1283               	bcf	3,5	;RP0=0, select bank0
  3649  072A  1303               	bcf	3,6	;RP1=0, select bank0
  3650  072B  1E8C               	btfss	12,5	;volatile
  3651  072C  2F2E               	goto	u81_21
  3652  072D  2F2F               	goto	u81_20
  3653  072E                     u81_21:
  3654  072E  2F3F               	goto	i1l63
  3655  072F                     u81_20:
  3656  072F                     i1l1129:
  3657  072F  120A  118A  27A9  120A  118A  	fcall	_Receive
  3658  0734  00F0               	movwf	??_oli
  3659  0735  0870               	movf	??_oli,w
  3660  0736  00F9               	movwf	_comando
  3661  0737                     i1l1131:
  3662  0737  30C7               	movlw	199
  3663  0738  00F0               	movwf	??_oli
  3664  0739                     u197_27:
  3665  0739  0BF0               	decfsz	??_oli,f
  3666  073A  2F39               	goto	u197_27
  3667  073B  2F3C               	nop2
  3668  073C                     i1l1133:
  3669  073C  1283               	bcf	3,5	;RP0=0, select bank0
  3670  073D  1303               	bcf	3,6	;RP1=0, select bank0
  3671  073E  128C               	bcf	12,5	;volatile
  3672  073F                     i1l63:
  3673  073F  0872               	movf	??_oli+2,w
  3674  0740  008A               	movwf	10
  3675  0741  0E71               	swapf	??_oli+1,w
  3676  0742  0083               	movwf	3
  3677  0743  0EFE               	swapf	btemp,f
  3678  0744  0E7E               	swapf	btemp,w
  3679  0745  0009               	retfie
  3680  0746                     __end_of_oli:
  3681                           
  3682                           	psect	intentry
  3683  0004                     __pintentry:	
  3684                           ;incstack = 0
  3685                           ; Regs used in _oli: [wreg+pclath+cstack]
  3686                           
  3687  0004                     interrupt_function:
  3688  007E                     saved_w	set	btemp
  3689  0004  00FE               	movwf	btemp
  3690  0005  0E03               	swapf	3,w
  3691  0006  00F1               	movwf	??_oli+1
  3692  0007  080A               	movf	10,w
  3693  0008  00F2               	movwf	??_oli+2
  3694  0009  120A  118A  2F29   	ljmp	_oli
  3695                           
  3696                           	psect	text17
  3697  07A9                     __ptext17:	
  3698 ;; *************** function _Receive *****************
  3699 ;; Defined at:
  3700 ;;		line 18 in file "EUSART.c"
  3701 ;; Parameters:    Size  Location     Type
  3702 ;;		None
  3703 ;; Auto vars:     Size  Location     Type
  3704 ;;		None
  3705 ;; Return value:  Size  Location     Type
  3706 ;;                  1    wreg      unsigned char 
  3707 ;; Registers used:
  3708 ;;		wreg
  3709 ;; Tracked objects:
  3710 ;;		On entry : 0/0
  3711 ;;		On exit  : 0/0
  3712 ;;		Unchanged: 0/0
  3713 ;; Data sizes:     COMMON   BANK0   BANK1   BANK3   BANK2
  3714 ;;      Params:         0       0       0       0       0
  3715 ;;      Locals:         0       0       0       0       0
  3716 ;;      Temps:          0       0       0       0       0
  3717 ;;      Totals:         0       0       0       0       0
  3718 ;;Total ram usage:        0 bytes
  3719 ;; Hardware stack levels used:    1
  3720 ;; This function calls:
  3721 ;;		Nothing
  3722 ;; This function is called by:
  3723 ;;		_oli
  3724 ;; This function uses a non-reentrant model
  3725 ;;
  3726                           
  3727                           
  3728                           ;psect for function _Receive
  3729  07A9                     _Receive:
  3730  07A9                     i1l1109:	
  3731                           ;incstack = 0
  3732                           ; Regs used in _Receive: [wreg]
  3733                           
  3734                           
  3735                           ;EUSART.c: 19:     if (RCSTAbits.OERR){
  3736  07A9  1283               	bcf	3,5	;RP0=0, select bank0
  3737  07AA  1303               	bcf	3,6	;RP1=0, select bank0
  3738  07AB  1C98               	btfss	24,1	;volatile
  3739  07AC  2FAE               	goto	u79_21
  3740  07AD  2FAF               	goto	u79_20
  3741  07AE                     u79_21:
  3742  07AE  2FB1               	goto	i1l130
  3743  07AF                     u79_20:
  3744  07AF                     i1l1111:
  3745                           
  3746                           ;EUSART.c: 20:         RCSTAbits.CREN=0;
  3747  07AF  1218               	bcf	24,4	;volatile
  3748                           
  3749                           ;EUSART.c: 21:         RCSTAbits.CREN=1;
  3750  07B0  1618               	bsf	24,4	;volatile
  3751  07B1                     i1l130:	
  3752                           ;EUSART.c: 24:     }
  3753                           
  3754                           
  3755                           ;EUSART.c: 23:     while (PIR1bits.RCIF==0){
  3756  07B1  1E8C               	btfss	12,5	;volatile
  3757  07B2  2FB4               	goto	u80_21
  3758  07B3  2FB5               	goto	u80_20
  3759  07B4                     u80_21:
  3760  07B4  2FB1               	goto	i1l130
  3761  07B5                     u80_20:
  3762  07B5                     i1l1113:
  3763                           
  3764                           ;EUSART.c: 25:     return RCREG;
  3765  07B5  081A               	movf	26,w	;volatile
  3766  07B6                     i1l133:
  3767  07B6  0008               	return
  3768  07B7                     __end_of_Receive:
  3769  007E                     btemp	set	126	;btemp
  3770  007E                     wtemp0	set	126
  3771                           
  3772                           	psect	config
  3773                           
  3774                           ;Config register CONFIG1 @ 0x2007
  3775                           ;	Oscillator Selection bits
  3776                           ;	FOSC = XT, XT oscillator: Crystal/resonator on RA6/OSC2/CLKOUT and RA7/OSC1/CLKIN
  3777                           ;	Watchdog Timer Enable bit
  3778                           ;	WDTE = OFF, WDT disabled and can be enabled by SWDTEN bit of the WDTCON register
  3779                           ;	Power-up Timer Enable bit
  3780                           ;	PWRTE = OFF, PWRT disabled
  3781                           ;	RE3/MCLR pin function select bit
  3782                           ;	MCLRE = ON, RE3/MCLR pin function is MCLR
  3783                           ;	Code Protection bit
  3784                           ;	CP = OFF, Program memory code protection is disabled
  3785                           ;	Data Code Protection bit
  3786                           ;	CPD = OFF, Data memory code protection is disabled
  3787                           ;	Brown Out Reset Selection bits
  3788                           ;	BOREN = OFF, BOR disabled
  3789                           ;	Internal External Switchover bit
  3790                           ;	IESO = OFF, Internal/External Switchover mode is disabled
  3791                           ;	Fail-Safe Clock Monitor Enabled bit
  3792                           ;	FCMEN = OFF, Fail-Safe Clock Monitor is disabled
  3793                           ;	Low Voltage Programming Enable bit
  3794                           ;	LVP = OFF, RB3 pin has digital I/O, HV on MCLR must be used for programming
  3795                           ;	In-Circuit Debugger Mode bit
  3796                           ;	DEBUG = 0x1, unprogrammed default
  3797  2007                     	org	8199
  3798  2007  20F1               	dw	8433
  3799                           
  3800                           ;Config register CONFIG2 @ 0x2008
  3801                           ;	Brown-out Reset Selection bit
  3802                           ;	BOR4V = BOR40V, Brown-out Reset set to 4.0V
  3803                           ;	Flash Program Memory Self Write Enable bits
  3804                           ;	WRT = OFF, Write protection off
  3805  2008                     	org	8200
  3806  2008  3FFF               	dw	16383

Data Sizes:
    Strings     17
    Constant    0
    Data        0
    BSS         2
    Persistent  3
    Stack       0

Auto Spaces:
    Space          Size  Autos    Used
    COMMON           14      9      11
    BANK0            80     59      62
    BANK1            80      0       0
    BANK3            96      0       0
    BANK2            96      0       0

Pointer List with Targets:

    Lcd_Write_String@a	PTR unsigned char  size(1) Largest target is 15
		 -> STR_2(CODE[2]), STR_1(CODE[15]), 


Critical Paths under _main in COMMON

    _main->_Lcd_Init
    _main->_Lcd_Set_Cursor
    _main->_Lcd_Write_String
    _WriteFloat->_Lcd_Set_Cursor
    _WriteFloat->_Lcd_Write_String
    _WriteFloat->___fltol
    _WriteFloat->___wmul
    ___fltol->___xxtofl
    ___flmul->__Umul8_16
    ___flmul->___xxtofl
    _Lcd_Write_String->_Lcd_Write_Char
    _Lcd_Write_Char->_Lcd_Port
    _Lcd_Set_Cursor->_Lcd_Cmd
    _Lcd_Init->_Lcd_Cmd
    _Lcd_Clear->_Lcd_Cmd
    _Lcd_Cmd->_Lcd_Port

Critical Paths under _oli in COMMON

    None.

Critical Paths under _main in BANK0

    _main->_WriteFloat
    _WriteFloat->___fltol
    ___fltol->___flmul
    ___flmul->___xxtofl

Critical Paths under _oli in BANK0

    None.

Critical Paths under _main in BANK1

    None.

Critical Paths under _oli in BANK1

    None.

Critical Paths under _main in BANK3

    None.

Critical Paths under _oli in BANK3

    None.

Critical Paths under _main in BANK2

    None.

Critical Paths under _oli in BANK2

    None.

Call Graph Tables:

 ---------------------------------------------------------------------------------
 (Depth) Function   	        Calls       Base Space   Used Autos Params    Refs
 ---------------------------------------------------------------------------------
 (0) _main                                                 2     2      0    7234
                                             57 BANK0      2     2      0
                          _Lcd_Clear
                           _Lcd_Init
                     _Lcd_Set_Cursor
                   _Lcd_Write_String
                         _WriteFloat
                              _setup
 ---------------------------------------------------------------------------------
 (1) _setup                                                1     1      0       0
                                              3 COMMON     1     1      0
 ---------------------------------------------------------------------------------
 (1) _WriteFloat                                          12    10      2    6412
                                             45 BANK0     12    10      2
                     _Lcd_Set_Cursor
                     _Lcd_Write_Char
                   _Lcd_Write_String
                            ___flmul
                            ___fltol
                            ___lwdiv
                             ___wmul
                           ___xxtofl
 ---------------------------------------------------------------------------------
 (2) ___xxtofl                                            14    10      4     566
                                              3 COMMON     4     0      4
                                              0 BANK0     10    10      0
 ---------------------------------------------------------------------------------
 (2) ___wmul                                               6     2      4     396
                                              3 COMMON     6     2      4
 ---------------------------------------------------------------------------------
 (2) ___lwdiv                                              8     4      4     601
                                              3 COMMON     5     1      4
                                              0 BANK0      3     3      0
 ---------------------------------------------------------------------------------
 (2) ___fltol                                             11     7      4     427
                                              7 COMMON     2     2      0
                                             36 BANK0      9     5      4
                            ___flmul (ARG)
                           ___xxtofl (ARG)
 ---------------------------------------------------------------------------------
 (2) ___flmul                                             26    18      8    2417
                                             10 BANK0     26    18      8
                          __Umul8_16
                           ___xxtofl (ARG)
 ---------------------------------------------------------------------------------
 (3) __Umul8_16                                            9     7      2     799
                                              3 COMMON     4     2      2
                                              0 BANK0      5     5      0
 ---------------------------------------------------------------------------------
 (2) _Lcd_Write_String                                     3     3      0     200
                                              6 COMMON     3     3      0
                     _Lcd_Write_Char
 ---------------------------------------------------------------------------------
 (3) _Lcd_Write_Char                                       2     2      0      44
                                              4 COMMON     2     2      0
                           _Lcd_Port
 ---------------------------------------------------------------------------------
 (2) _Lcd_Set_Cursor                                       2     1      1     512
                                              7 COMMON     2     1      1
                            _Lcd_Cmd
 ---------------------------------------------------------------------------------
 (1) _Lcd_Init                                             2     2      0      66
                                              7 COMMON     2     2      0
                            _Lcd_Cmd
                           _Lcd_Port
 ---------------------------------------------------------------------------------
 (1) _Lcd_Clear                                            0     0      0      44
                            _Lcd_Cmd
 ---------------------------------------------------------------------------------
 (3) _Lcd_Cmd                                              3     3      0      44
                                              4 COMMON     3     3      0
                           _Lcd_Port
 ---------------------------------------------------------------------------------
 (4) _Lcd_Port                                             1     1      0      22
                                              3 COMMON     1     1      0
 ---------------------------------------------------------------------------------
 Estimated maximum stack depth 4
 ---------------------------------------------------------------------------------
 (Depth) Function   	        Calls       Base Space   Used Autos Params    Refs
 ---------------------------------------------------------------------------------
 (5) _oli                                                  3     3      0       0
                                              0 COMMON     3     3      0
                            _Receive
 ---------------------------------------------------------------------------------
 (6) _Receive                                              0     0      0       0
 ---------------------------------------------------------------------------------
 Estimated maximum stack depth 6
 ---------------------------------------------------------------------------------

 Call Graph Graphs:

 _main (ROOT)
   _Lcd_Clear
     _Lcd_Cmd
       _Lcd_Port
   _Lcd_Init
     _Lcd_Cmd
       _Lcd_Port
     _Lcd_Port
   _Lcd_Set_Cursor
     _Lcd_Cmd
       _Lcd_Port
   _Lcd_Write_String
     _Lcd_Write_Char
       _Lcd_Port
   _WriteFloat
     _Lcd_Set_Cursor
       _Lcd_Cmd
         _Lcd_Port
     _Lcd_Write_Char
       _Lcd_Port
     _Lcd_Write_String
       _Lcd_Write_Char
         _Lcd_Port
     ___flmul
       __Umul8_16
       ___xxtofl (ARG)
     ___fltol
       ___flmul (ARG)
         __Umul8_16
         ___xxtofl (ARG)
       ___xxtofl (ARG)
     ___lwdiv
     ___wmul
     ___xxtofl
   _setup

 _oli (ROOT)
   _Receive

 Address spaces:
Name               Size   Autos  Total    Cost      Usage
BITCOMMON            E      0       0       0        0.0%
EEDATA             100      0       0       0        0.0%
NULL                 0      0       0       0        0.0%
CODE                 0      0       0       0        0.0%
COMMON               E      9       B       1       78.6%
BITSFR0              0      0       0       1        0.0%
SFR0                 0      0       0       1        0.0%
BITSFR1              0      0       0       2        0.0%
SFR1                 0      0       0       2        0.0%
STACK                0      0       0       2        0.0%
ABS                  0      0      49       3        0.0%
BITBANK0            50      0       0       4        0.0%
BITSFR3              0      0       0       4        0.0%
SFR3                 0      0       0       4        0.0%
BANK0               50     3B      3E       5       77.5%
BITSFR2              0      0       0       5        0.0%
SFR2                 0      0       0       5        0.0%
BITBANK1            50      0       0       6        0.0%
BANK1               50      0       0       7        0.0%
BITBANK3            60      0       0       8        0.0%
BANK3               60      0       0       9        0.0%
BITBANK2            60      0       0      10        0.0%
BANK2               60      0       0      11        0.0%
DATA                 0      0      49      12        0.0%


Microchip Technology PIC Macro Assembler V2.31 build 20201012212115 
Symbol Table                                                                                   Mon Feb 22 20:30:08 2021

                        _a 007A                          pc 0002                         l51 060D  
                       l80 077B                         l57 0728                         l66 0474  
                       l83 07C3                         l92 0602                         l77 07C9  
                       l95 07A8                         l89 0761                         fsr 0004  
      ___wmul@multiplicand 0075        __Umul8_16@word_mpld 0022                        l101 070A  
                      l221 06E5                        l219 06CD                        l412 0597  
                      l405 05AC                        l415 05AC                        l620 0369  
                      l614 02E1                        l608 0375                        l627 06AE  
                      l491 0697                        l652 0499                        l629 06C0  
                      l654 0530                        l665 04FA                        l666 0506  
                      l658 04DE                        _RB0 0030                        _RB1 0031  
                      u820 06A8                        u821 06A7                        u910 06E1  
                      u911 06E0                        u840 06BC                        u841 06BB  
                      u905 06D5                        u850 074C                        u851 074B  
                      u835 06AF                        u860 075A                        u861 0759  
                      u870 070A                        u871 0709                        u880 06C7  
                      u881 06C6                        u895 06CE                        _oli 0729  
                      fsr0 0004               ___flmul@aexp 003C               ___flmul@bexp 003D  
             ___flmul@sign 0037               ___flmul@temp 0042               ___flmul@prod 003E  
             ___fltol@exp1 0078                       l1201 06C1                       l1211 06E1  
                     l1203 06C3                       l1301 0052                       l1205 06C7  
                     l1151 0794                       l1311 0067                       l1303 0053  
                     l1207 06D4                       l1161 0763                       l1153 0797  
                     l1401 0343                       l1321 0082                       l1313 006F  
                     l1305 0058                       l1209 06DB                       l1163 0766  
                     l1155 079D                       l1171 069B                       l1411 0362  
                     l1403 034D                       l1331 0104                       l1323 0092  
                     l1315 0074                       l1307 005D                       l1149 07C5  
                     l1165 076C                       l1157 07A0                       l1181 06BC  
                     l1173 069D                       l1413 036D                       l1405 034F  
                     l1341 0172                       l1333 0120                       l1325 009F  
                     l1317 0079                       l1309 0065                       l1167 076F  
                     l1191 075A                       l1159 07A5                       l1175 06A4  
                     l1407 035D                       l1351 0202                       l1343 0182  
                     l1335 013C                       l1327 00BC                       l1169 0778  
                     l1185 0747                       l1193 06E7                       l1177 06A8  
                     l1409 0361                       l1361 0296                       l1353 0212  
                     l1345 019F                       l1337 0145                       l1329 00D8  
                     l1281 0022                       l1601 0686                       l1187 074C  
                     l1195 06EA                       l1179 06B7                       l1371 02BB  
                     l1363 02A4                       l1355 023F                       l1347 01B8  
                     l1339 0155                       l1291 0039                       l1283 0026  
                     l1603 068D                       l1611 047D                       l1189 0754  
                     l1197 06F7                       l1381 02DE                       l1365 02AD  
                     l1373 02C1                       l1357 0265                       l1349 01D5  
                     l1293 003B                       l1285 0027                       l1277 0015  
                     l1605 0693                       l1621 04AA                       l1613 0481  
                     l1461 070B                       l1199 06FD                       l1391 02FD  
                     l1375 02C5                       l1367 02B1                       l1359 028D  
                     l1295 0043                       l1287 002C                       l1279 001C  
                     l1631 04D5                       l1623 04AF                       l1615 0491  
                     l1471 0720                       l1463 070E                       l1481 05CA  
                     l1393 0316                       l1385 02E6                       l1377 02C6  
                     l1369 02B2                       l1297 0048                       l1289 0031  
                     l1561 0567                       l1553 0547                       l1641 0508  
                     l1633 04E5                       l1625 04BC                       l1617 04A1  
                     l1609 0478                       l1473 0724                       l1465 0718  
                     l1491 05F0                       l1483 05D3                       l1475 05AD  
                     l1387 02EB                       l1395 031C                       l1379 02CA  
                     l1299 004E                       l1563 056B                       l1571 0585  
                     l1555 055C                       l1547 0531                       l1643 051E  
                     l1635 04F0                       l1627 04C3                       l1467 0719  
                     l1493 05F6                       l1485 05DE                       l1477 05B5  
                     l1397 0329                       l1389 02F9                       l1581 05A1  
                     l1557 055D                       l1549 053E                       l1645 0523  
                     l1637 04F4                       l1629 04C7                       l1661 03F8  
                     l1653 0379                       l1469 071A                       l1495 05FC  
                     l1487 05E4                       l1479 05BB                       l1399 0334  
                     l1559 0565                       l1591 0666                       l1583 0652  
                     l1647 0527                       l1639 04FE                       l1671 0425  
                     l1663 0412                       l1655 03B8                       l1497 07B7  
                     l1489 05EA                       l1577 058C                       l1569 0573  
                     l1593 066A                       l1585 0656                       l1649 0528  
                     l1681 0457                       l1673 042F                       l1665 0416  
                     l1657 03CB                       l1579 059C                       l1595 066E  
                     l1587 065C                       l1683 045F                       l1675 0437  
                     l1667 041B                       l1659 03E5                       l1691 0620  
                     l1597 067F                       l1589 065F                       l1685 046C  
                     l1677 0444                       l1669 0420                       l1693 062E  
                     l1599 0685                       l1679 044A                       l1695 063E  
                     l1687 0603                       l1689 061A                       ?_oli 0070  
                     STR_1 0782                       STR_2 0791                       u1100 002C  
                     u1101 002B                       u1110 0031                       u1111 0030  
                     u1120 0052                       u1201 012E                       u1121 0051  
                     u1202 0135                       u1130 0058                       u1203 013C  
                     u1131 0057                       u1300 0273                       u1140 005D  
                     u1221 0164                       u1141 005C                       u1222 016B  
                     u1150 0074                       u1311 027F                       u1231 0191  
                     u1223 0172                       u1215 013E                       u1151 0073  
                     u1400 02EB                       u1312 0286                       u1232 0198  
                     u1160 0079                       u1401 02EA                       u1313 028D  
                     u1305 026E                       u1233 019F                       u1161 0078  
                     u1410 02FD                       u1090 0026                       u1411 02FC  
                     u1251 01C7                       u1171 00CA                       u1091 0025  
                     u1420 030C                       u1340 02B1                       u1252 01CE  
                     u1172 00D1                       u1341 02B0                       u1325 028F  
                     u1261 01F4                       u1253 01D5                       u1245 01A1  
                     u1181 00E6                       u1173 00D8                       u1430 0329  
                     u1262 01FB                       u1182 00ED                       u1431 0328  
                     u1335 02A6                       u1271 0221                       u1263 0202  
                     u1191 0112                       u1183 00F4                       u1440 0343  
                     u1360 02C5                       u1280 024B                       u1272 0228  
                     u1192 0119                       u1600 053E                       u1441 0342  
                     u1425 0307                       u1361 02C4                       u1273 022F  
                     u1193 0120                       u1601 053D                       u1450 0361  
                     u1370 02CA                       u1610 0555                       u1451 0360  
                     u1435 0325                       u1371 02C9                       u1355 02B4  
                     u1291 0257                       u1380 02DE                       u1292 025E  
                     u1620 056B                       u1700 065C                       u1445 033F  
                     u1381 02DD                       u1293 0265                       u1285 0246  
                     u1621 056A                       u1701 065B                       u1390 02E5  
                     u1630 0572                       u1391 02E4                       u1631 0571  
                     u1615 0550                       u1720 066E                       u1721 066D  
                     u1650 0584                       u1810 04C2                       u1651 0583  
                     u1715 0660                       u1811 04C1                       u1660 058B  
                     u1740 067F                       u1900 0527                       u1661 058A  
                     u1645 0574                       u1741 067E                       u1901 0526  
                     u1805 04B4                       u1830 04E4                       u1735 066F  
                     u1831 04E3                       u1680 059C                       u1760 0693  
                     u1681 059B                       u1761 0692                       u1745 067B  
                     u1825 04D6                       u1690 05A1                       u1850 04F4  
                     u1770 047D                       u1691 05A0                       u1675 058E  
                     u1755 0687                       u1851 04F3                       u1771 047C  
                     u1860 04FA                       u1780 0481                       u1917 07A2  
                     u1861 04F9                       u1845 04E9                       u1781 0480  
                     u1870 04FE                       u1790 04A1                       u1927 05B1  
                     u1871 04FD                       u1791 04A0                       u1880 0513  
                     u1937 05BF                       u1890 0523                       u1947 05CE  
                     u1891 0522                       u1957 05DB                       u1885 050E  
                     u1967 0773                       i1l63 073F          ?_Lcd_Write_String 0070  
                     _main 0603                       btemp 007E                       start 000C  
       ??_Lcd_Write_String 0076            __end_of_Lcd_Cmd 077C            __end_of_Receive 07B7  
                    ??_oli 0070              ___fltol@sign1 0077                      ?_main 0070  
          __end_of___flmul 0376            __end_of___fltol 05AD                      _ANSEL 0188  
          __end_of___lwdiv 0698                      i1l130 07B1                      i1l133 07B6  
                    _RCREG 001A                      _SPBRG 0099                      _PORTD 0008  
                    u80_20 07B5                      u80_21 07B4                      u81_20 072F  
                    u81_21 072E    __size_of_Lcd_Set_Cursor 001C                      _TRISA 0085  
                    _TRISB 0086                      _TRISC 0087                      _TRISD 0088  
                    u79_20 07AF                      u79_21 07AE                      _setup 070B  
                    pclath 000A                      status 0003                      wtemp0 007E  
         __end_of_Lcd_Init 0603           __end_of_Lcd_Port 07CA            __initialization 000F  
             __end_of_main 0652                     ??_main 0059         __size_of_Lcd_Clear 000D  
                   ?_setup 0070                     _ANSELH 0189                     i1l1111 07AF  
                   i1l1113 07B5                     i1l1131 0737                     i1l1109 07A9  
                   i1l1133 073C                     i1l1127 0729                     i1l1129 072F  
                   u197_27 0739                  ??_Lcd_Cmd 0074                     _SPBRGH 009A  
  __size_of_Lcd_Write_Char 0016           __end_of___xxtofl 0531                  ??_Receive 0070  
                   ___wmul 06C1                  ??___flmul 0032                  ??___fltol 0048  
                ??___lwdiv 0077         __size_of__Umul8_16 0029                     saved_w 007E  
           WriteFloat@cent 0053             WriteFloat@fila 0056             WriteFloat@temp 0057  
          Lcd_Set_Cursor@a 0078            Lcd_Set_Cursor@b 0077               ___xxtofl@arg 0026  
             ___xxtofl@exp 0025               ___xxtofl@val 0073    __end_of__initialization 0011  
        __end_of_Lcd_Clear 07C4                 ___fltol@f1 0044             __pcstackCOMMON 0070  
               _WriteFloat 0376              __end_of_setup 0729             _Lcd_Set_Cursor 0746  
                ?_Lcd_Init 0070                  ?_Lcd_Port 0070                    ??_setup 0073  
        __end_of__Umul8_16 06C1                 __pmaintext 0603                    ?___wmul 0073  
               __pintentry 0004  __size_of_Lcd_Write_String 0025     __end_of_Lcd_Set_Cursor 0762  
                ?___xxtofl 0073                 ??_Lcd_Init 0077                 ??_Lcd_Port 0073  
               __stringtab 077C             _Lcd_Write_Char 0793                    _Lcd_Cmd 0762  
                  _Receive 07A9                ?_WriteFloat 004D                    ___flmul 0015  
                  ___fltol 0531            __size_of___wmul 0025                    ___lwdiv 0652  
          ?_Lcd_Set_Cursor 0077                    __ptext1 070B                    __ptext2 0376  
                  __ptext3 0475                    __ptext4 06C1                    __ptext5 0652  
                  __ptext6 0531                    __ptext7 0015                    __ptext8 0698  
                  __ptext9 06E6                    _comando 0079               __size_of_oli 001D  
               ??___xxtofl 0020                    _prueba1 005D                    _prueba2 005C  
                  _prueba3 005B     __end_of_Lcd_Write_Char 07A9       end_of_initialization 0011  
                _RCSTAbits 0018                  Lcd_Port@a 0073            WriteFloat@valor 004E  
            ___xxtofl@sign 0024                  _TRISCbits 0087            ?_Lcd_Write_Char 0070  
      __size_of_WriteFloat 00FF          Lcd_Write_String@a 0078          Lcd_Write_String@i 0076  
              ___flmul@grs 0038                  _TXSTAbits 0098                  _Lcd_Clear 07B7  
           __end_of___wmul 06E6           _Lcd_Write_String 06E6                _BAUDCTLbits 0187  
      start_initialization 000F                __end_of_oli 0746          __size_of_Lcd_Init 0056  
        __size_of_Lcd_Port 0006                 ?_Lcd_Clear 0070                   ??___wmul 0077  
                __Umul8_16 0698            Lcd_Write_Char@a 0075              WriteFloat@dec 0055  
                ___flmul@a 002E                  ___flmul@b 002A                __pbssCOMMON 0079  
                ___latbits 0002              __pcstackBANK0 0020          __size_of___xxtofl 00BC  
                 ?_Lcd_Cmd 0070                  __pnvBANK0 005B                   ?_Receive 0070  
         ___lwdiv@dividend 0075           ??_Lcd_Set_Cursor 0078               ??_WriteFloat 004F  
                 ?___flmul 002A                   ?___fltol 0044                 ?__Umul8_16 0073  
                 ?___lwdiv 0073                  __pstrings 077C           ___lwdiv@quotient 0021  
           __size_of_setup 001E         __end_of_WriteFloat 0475          interrupt_function 0004  
           ___wmul@product 0077                   _PIE1bits 008C                   Lcd_Cmd@a 0076  
                 _PIR1bits 000C                ??_Lcd_Clear 0077                __stringbase 0781  
        ___wmul@multiplier 0073           ??_Lcd_Write_Char 0074                   _Lcd_Init 05AD  
                 _Lcd_Port 07C4   __end_of_Lcd_Write_String 070B           __size_of_Lcd_Cmd 001A  
         __size_of_Receive 000E                ??__Umul8_16 0075           __size_of___flmul 0361  
         __size_of___fltol 007C           __size_of___lwdiv 0046         __end_of__stringtab 0782  
                 ___xxtofl 0475            ___lwdiv@divisor 0073            ___lwdiv@counter 0020  
                 __ptext10 0793                   __ptext11 0746                   __ptext12 05AD  
                 __ptext13 07B7                   __ptext14 0762                   __ptext15 07C4  
                 __ptext16 0729                   __ptext17 07A9              __size_of_main 004F  
               _INTCONbits 000B                   intlevel1 0000          WriteFloat@columna 004D  
                stringcode 077C     __Umul8_16@multiplicand 0073                   stringdir 077C  
                 stringtab 077C           WriteFloat@unidad 0054       __Umul8_16@multiplier 0024  
        __Umul8_16@product 0020  
